
xv6-kernel.bin:     file format binary


Disassembly of section .data:

0000000080000000 <.data>:
    80000000:	0000b117          	auipc	sp,0xb
    80000004:	9c010113          	addi	sp,sp,-1600 # 0x8000a9c0
    80000008:	00001537          	lui	a0,0x1
    8000000c:	f14025f3          	csrr	a1,mhartid
    80000010:	00158593          	addi	a1,a1,1
    80000014:	02b50533          	mul	a0,a0,a1
    80000018:	00a10133          	add	sp,sp,a0
    8000001c:	04c000ef          	jal	ra,0x80000068
    80000020:	0000006f          	j	0x80000020
    80000024:	ff010113          	addi	sp,sp,-16
    80000028:	00813423          	sd	s0,8(sp)
    8000002c:	01010413          	addi	s0,sp,16
    80000030:	304027f3          	csrr	a5,mie
    80000034:	0207e793          	ori	a5,a5,32
    80000038:	30479073          	csrw	mie,a5
    8000003c:	30a027f3          	csrr	a5,0x30a
    80000040:	fff00713          	li	a4,-1
    80000044:	03f71713          	slli	a4,a4,0x3f
    80000048:	00e7e7b3          	or	a5,a5,a4
    8000004c:	30a79073          	csrw	0x30a,a5
    80000050:	306027f3          	csrr	a5,mcounteren
    80000054:	0027e793          	ori	a5,a5,2
    80000058:	30679073          	csrw	mcounteren,a5
    8000005c:	00813403          	ld	s0,8(sp)
    80000060:	01010113          	addi	sp,sp,16
    80000064:	00008067          	ret
    80000068:	ff010113          	addi	sp,sp,-16
    8000006c:	00113423          	sd	ra,8(sp)
    80000070:	00813023          	sd	s0,0(sp)
    80000074:	01010413          	addi	s0,sp,16
    80000078:	300027f3          	csrr	a5,mstatus
    8000007c:	ffffe737          	lui	a4,0xffffe
    80000080:	7ff70713          	addi	a4,a4,2047 # 0xffffffffffffe7ff
    80000084:	00e7f7b3          	and	a5,a5,a4
    80000088:	00001737          	lui	a4,0x1
    8000008c:	80070713          	addi	a4,a4,-2048 # 0x800
    80000090:	00e7e7b3          	or	a5,a5,a4
    80000094:	30079073          	csrw	mstatus,a5
    80000098:	00001797          	auipc	a5,0x1
    8000009c:	3ec78793          	addi	a5,a5,1004 # 0x80001484
    800000a0:	34179073          	csrw	mepc,a5
    800000a4:	00000793          	li	a5,0
    800000a8:	18079073          	csrw	satp,a5
    800000ac:	000107b7          	lui	a5,0x10
    800000b0:	fff78793          	addi	a5,a5,-1 # 0xffff
    800000b4:	30279073          	csrw	medeleg,a5
    800000b8:	30379073          	csrw	mideleg,a5
    800000bc:	104027f3          	csrr	a5,sie
    800000c0:	2207e793          	ori	a5,a5,544
    800000c4:	10479073          	csrw	sie,a5
    800000c8:	fff00793          	li	a5,-1
    800000cc:	00a7d793          	srli	a5,a5,0xa
    800000d0:	3b079073          	csrw	pmpaddr0,a5
    800000d4:	00f00793          	li	a5,15
    800000d8:	3a079073          	csrw	pmpcfg0,a5
    800000dc:	00000097          	auipc	ra,0x0
    800000e0:	f48080e7          	jalr	-184(ra) # 0x80000024
    800000e4:	f14027f3          	csrr	a5,mhartid
    800000e8:	0007879b          	sext.w	a5,a5
    800000ec:	00078213          	mv	tp,a5
    800000f0:	30200073          	mret
    800000f4:	00813083          	ld	ra,8(sp)
    800000f8:	00013403          	ld	s0,0(sp)
    800000fc:	01010113          	addi	sp,sp,16
    80000100:	00008067          	ret
    80000104:	f9010113          	addi	sp,sp,-112
    80000108:	06113423          	sd	ra,104(sp)
    8000010c:	06813023          	sd	s0,96(sp)
    80000110:	04913c23          	sd	s1,88(sp)
    80000114:	05213823          	sd	s2,80(sp)
    80000118:	05313423          	sd	s3,72(sp)
    8000011c:	05413023          	sd	s4,64(sp)
    80000120:	03513c23          	sd	s5,56(sp)
    80000124:	03613823          	sd	s6,48(sp)
    80000128:	03713423          	sd	s7,40(sp)
    8000012c:	03813023          	sd	s8,32(sp)
    80000130:	07010413          	addi	s0,sp,112
    80000134:	06c05463          	blez	a2,0x8000019c
    80000138:	00050a13          	mv	s4,a0
    8000013c:	00058a93          	mv	s5,a1
    80000140:	00060993          	mv	s3,a2
    80000144:	00000913          	li	s2,0
    80000148:	01f00b93          	li	s7,31
    8000014c:	02000c13          	li	s8,32
    80000150:	fff00b13          	li	s6,-1
    80000154:	0380006f          	j	0x8000018c
    80000158:	00048693          	mv	a3,s1
    8000015c:	01590633          	add	a2,s2,s5
    80000160:	000a0593          	mv	a1,s4
    80000164:	f9040513          	addi	a0,s0,-112
    80000168:	00003097          	auipc	ra,0x3
    8000016c:	570080e7          	jalr	1392(ra) # 0x800036d8
    80000170:	03650863          	beq	a0,s6,0x800001a0
    80000174:	00048593          	mv	a1,s1
    80000178:	f9040513          	addi	a0,s0,-112
    8000017c:	00001097          	auipc	ra,0x1
    80000180:	9f8080e7          	jalr	-1544(ra) # 0x80000b74
    80000184:	0124893b          	addw	s2,s1,s2
    80000188:	01395c63          	bge	s2,s3,0x800001a0
    8000018c:	412984bb          	subw	s1,s3,s2
    80000190:	fc9bd4e3          	bge	s7,s1,0x80000158
    80000194:	000c0493          	mv	s1,s8
    80000198:	fc1ff06f          	j	0x80000158
    8000019c:	00000913          	li	s2,0
    800001a0:	00090513          	mv	a0,s2
    800001a4:	06813083          	ld	ra,104(sp)
    800001a8:	06013403          	ld	s0,96(sp)
    800001ac:	05813483          	ld	s1,88(sp)
    800001b0:	05013903          	ld	s2,80(sp)
    800001b4:	04813983          	ld	s3,72(sp)
    800001b8:	04013a03          	ld	s4,64(sp)
    800001bc:	03813a83          	ld	s5,56(sp)
    800001c0:	03013b03          	ld	s6,48(sp)
    800001c4:	02813b83          	ld	s7,40(sp)
    800001c8:	02013c03          	ld	s8,32(sp)
    800001cc:	07010113          	addi	sp,sp,112
    800001d0:	00008067          	ret
    800001d4:	f9010113          	addi	sp,sp,-112
    800001d8:	06113423          	sd	ra,104(sp)
    800001dc:	06813023          	sd	s0,96(sp)
    800001e0:	04913c23          	sd	s1,88(sp)
    800001e4:	05213823          	sd	s2,80(sp)
    800001e8:	05313423          	sd	s3,72(sp)
    800001ec:	05413023          	sd	s4,64(sp)
    800001f0:	03513c23          	sd	s5,56(sp)
    800001f4:	03613823          	sd	s6,48(sp)
    800001f8:	03713423          	sd	s7,40(sp)
    800001fc:	03813023          	sd	s8,32(sp)
    80000200:	01913c23          	sd	s9,24(sp)
    80000204:	01a13823          	sd	s10,16(sp)
    80000208:	07010413          	addi	s0,sp,112
    8000020c:	00050a93          	mv	s5,a0
    80000210:	00058a13          	mv	s4,a1
    80000214:	00060993          	mv	s3,a2
    80000218:	00060b1b          	sext.w	s6,a2
    8000021c:	00012517          	auipc	a0,0x12
    80000220:	7a450513          	addi	a0,a0,1956 # 0x800129c0
    80000224:	00001097          	auipc	ra,0x1
    80000228:	e74080e7          	jalr	-396(ra) # 0x80001098
    8000022c:	00012497          	auipc	s1,0x12
    80000230:	79448493          	addi	s1,s1,1940 # 0x800129c0
    80000234:	00013917          	auipc	s2,0x13
    80000238:	82490913          	addi	s2,s2,-2012 # 0x80012a58
    8000023c:	00400b93          	li	s7,4
    80000240:	fff00c13          	li	s8,-1
    80000244:	00a00c93          	li	s9,10
    80000248:	09305463          	blez	s3,0x800002d0
    8000024c:	0984a783          	lw	a5,152(s1)
    80000250:	09c4a703          	lw	a4,156(s1)
    80000254:	02f71a63          	bne	a4,a5,0x80000288
    80000258:	00002097          	auipc	ra,0x2
    8000025c:	4a0080e7          	jalr	1184(ra) # 0x800026f8
    80000260:	00003097          	auipc	ra,0x3
    80000264:	200080e7          	jalr	512(ra) # 0x80003460
    80000268:	08051063          	bnez	a0,0x800002e8
    8000026c:	00048593          	mv	a1,s1
    80000270:	00090513          	mv	a0,s2
    80000274:	00003097          	auipc	ra,0x3
    80000278:	e3c080e7          	jalr	-452(ra) # 0x800030b0
    8000027c:	0984a783          	lw	a5,152(s1)
    80000280:	09c4a703          	lw	a4,156(s1)
    80000284:	fcf70ae3          	beq	a4,a5,0x80000258
    80000288:	0017871b          	addiw	a4,a5,1
    8000028c:	08e4ac23          	sw	a4,152(s1)
    80000290:	07f7f713          	andi	a4,a5,127
    80000294:	00e48733          	add	a4,s1,a4
    80000298:	01874703          	lbu	a4,24(a4)
    8000029c:	00070d1b          	sext.w	s10,a4
    800002a0:	097d0a63          	beq	s10,s7,0x80000334
    800002a4:	f8e40fa3          	sb	a4,-97(s0)
    800002a8:	00100693          	li	a3,1
    800002ac:	f9f40613          	addi	a2,s0,-97
    800002b0:	000a0593          	mv	a1,s4
    800002b4:	000a8513          	mv	a0,s5
    800002b8:	00003097          	auipc	ra,0x3
    800002bc:	390080e7          	jalr	912(ra) # 0x80003648
    800002c0:	01850863          	beq	a0,s8,0x800002d0
    800002c4:	001a0a13          	addi	s4,s4,1
    800002c8:	fff9899b          	addiw	s3,s3,-1
    800002cc:	f79d1ee3          	bne	s10,s9,0x80000248
    800002d0:	00012517          	auipc	a0,0x12
    800002d4:	6f050513          	addi	a0,a0,1776 # 0x800129c0
    800002d8:	00001097          	auipc	ra,0x1
    800002dc:	eb8080e7          	jalr	-328(ra) # 0x80001190
    800002e0:	413b053b          	subw	a0,s6,s3
    800002e4:	0180006f          	j	0x800002fc
    800002e8:	00012517          	auipc	a0,0x12
    800002ec:	6d850513          	addi	a0,a0,1752 # 0x800129c0
    800002f0:	00001097          	auipc	ra,0x1
    800002f4:	ea0080e7          	jalr	-352(ra) # 0x80001190
    800002f8:	fff00513          	li	a0,-1
    800002fc:	06813083          	ld	ra,104(sp)
    80000300:	06013403          	ld	s0,96(sp)
    80000304:	05813483          	ld	s1,88(sp)
    80000308:	05013903          	ld	s2,80(sp)
    8000030c:	04813983          	ld	s3,72(sp)
    80000310:	04013a03          	ld	s4,64(sp)
    80000314:	03813a83          	ld	s5,56(sp)
    80000318:	03013b03          	ld	s6,48(sp)
    8000031c:	02813b83          	ld	s7,40(sp)
    80000320:	02013c03          	ld	s8,32(sp)
    80000324:	01813c83          	ld	s9,24(sp)
    80000328:	01013d03          	ld	s10,16(sp)
    8000032c:	07010113          	addi	sp,sp,112
    80000330:	00008067          	ret
    80000334:	0009871b          	sext.w	a4,s3
    80000338:	f9677ce3          	bgeu	a4,s6,0x800002d0
    8000033c:	00012717          	auipc	a4,0x12
    80000340:	70f72e23          	sw	a5,1820(a4) # 0x80012a58
    80000344:	f8dff06f          	j	0x800002d0
    80000348:	ff010113          	addi	sp,sp,-16
    8000034c:	00113423          	sd	ra,8(sp)
    80000350:	00813023          	sd	s0,0(sp)
    80000354:	01010413          	addi	s0,sp,16
    80000358:	10000793          	li	a5,256
    8000035c:	00f50e63          	beq	a0,a5,0x80000378
    80000360:	00001097          	auipc	ra,0x1
    80000364:	90c080e7          	jalr	-1780(ra) # 0x80000c6c
    80000368:	00813083          	ld	ra,8(sp)
    8000036c:	00013403          	ld	s0,0(sp)
    80000370:	01010113          	addi	sp,sp,16
    80000374:	00008067          	ret
    80000378:	00800513          	li	a0,8
    8000037c:	00001097          	auipc	ra,0x1
    80000380:	8f0080e7          	jalr	-1808(ra) # 0x80000c6c
    80000384:	02000513          	li	a0,32
    80000388:	00001097          	auipc	ra,0x1
    8000038c:	8e4080e7          	jalr	-1820(ra) # 0x80000c6c
    80000390:	00800513          	li	a0,8
    80000394:	00001097          	auipc	ra,0x1
    80000398:	8d8080e7          	jalr	-1832(ra) # 0x80000c6c
    8000039c:	fcdff06f          	j	0x80000368
    800003a0:	fe010113          	addi	sp,sp,-32
    800003a4:	00113c23          	sd	ra,24(sp)
    800003a8:	00813823          	sd	s0,16(sp)
    800003ac:	00913423          	sd	s1,8(sp)
    800003b0:	01213023          	sd	s2,0(sp)
    800003b4:	02010413          	addi	s0,sp,32
    800003b8:	00050493          	mv	s1,a0
    800003bc:	00012517          	auipc	a0,0x12
    800003c0:	60450513          	addi	a0,a0,1540 # 0x800129c0
    800003c4:	00001097          	auipc	ra,0x1
    800003c8:	cd4080e7          	jalr	-812(ra) # 0x80001098
    800003cc:	01500793          	li	a5,21
    800003d0:	0cf48663          	beq	s1,a5,0x8000049c
    800003d4:	0497c263          	blt	a5,s1,0x80000418
    800003d8:	00800793          	li	a5,8
    800003dc:	10f48a63          	beq	s1,a5,0x800004f0
    800003e0:	01000793          	li	a5,16
    800003e4:	12f49e63          	bne	s1,a5,0x80000520
    800003e8:	00003097          	auipc	ra,0x3
    800003ec:	380080e7          	jalr	896(ra) # 0x80003768
    800003f0:	00012517          	auipc	a0,0x12
    800003f4:	5d050513          	addi	a0,a0,1488 # 0x800129c0
    800003f8:	00001097          	auipc	ra,0x1
    800003fc:	d98080e7          	jalr	-616(ra) # 0x80001190
    80000400:	01813083          	ld	ra,24(sp)
    80000404:	01013403          	ld	s0,16(sp)
    80000408:	00813483          	ld	s1,8(sp)
    8000040c:	00013903          	ld	s2,0(sp)
    80000410:	02010113          	addi	sp,sp,32
    80000414:	00008067          	ret
    80000418:	07f00793          	li	a5,127
    8000041c:	0cf48a63          	beq	s1,a5,0x800004f0
    80000420:	00012717          	auipc	a4,0x12
    80000424:	5a070713          	addi	a4,a4,1440 # 0x800129c0
    80000428:	0a072783          	lw	a5,160(a4)
    8000042c:	09872703          	lw	a4,152(a4)
    80000430:	40e787bb          	subw	a5,a5,a4
    80000434:	07f00713          	li	a4,127
    80000438:	faf76ce3          	bltu	a4,a5,0x800003f0
    8000043c:	00d00793          	li	a5,13
    80000440:	0ef48463          	beq	s1,a5,0x80000528
    80000444:	00048513          	mv	a0,s1
    80000448:	00000097          	auipc	ra,0x0
    8000044c:	f00080e7          	jalr	-256(ra) # 0x80000348
    80000450:	00012797          	auipc	a5,0x12
    80000454:	57078793          	addi	a5,a5,1392 # 0x800129c0
    80000458:	0a07a683          	lw	a3,160(a5)
    8000045c:	0016871b          	addiw	a4,a3,1
    80000460:	0007061b          	sext.w	a2,a4
    80000464:	0ae7a023          	sw	a4,160(a5)
    80000468:	07f6f693          	andi	a3,a3,127
    8000046c:	00d787b3          	add	a5,a5,a3
    80000470:	00978c23          	sb	s1,24(a5)
    80000474:	00a00793          	li	a5,10
    80000478:	0ef48263          	beq	s1,a5,0x8000055c
    8000047c:	00400793          	li	a5,4
    80000480:	0cf48e63          	beq	s1,a5,0x8000055c
    80000484:	00012797          	auipc	a5,0x12
    80000488:	5d47a783          	lw	a5,1492(a5) # 0x80012a58
    8000048c:	40f7073b          	subw	a4,a4,a5
    80000490:	08000793          	li	a5,128
    80000494:	f4f71ee3          	bne	a4,a5,0x800003f0
    80000498:	0c40006f          	j	0x8000055c
    8000049c:	00012717          	auipc	a4,0x12
    800004a0:	52470713          	addi	a4,a4,1316 # 0x800129c0
    800004a4:	0a072783          	lw	a5,160(a4)
    800004a8:	09c72703          	lw	a4,156(a4)
    800004ac:	00012497          	auipc	s1,0x12
    800004b0:	51448493          	addi	s1,s1,1300 # 0x800129c0
    800004b4:	00a00913          	li	s2,10
    800004b8:	f2f70ce3          	beq	a4,a5,0x800003f0
    800004bc:	fff7879b          	addiw	a5,a5,-1
    800004c0:	07f7f713          	andi	a4,a5,127
    800004c4:	00e48733          	add	a4,s1,a4
    800004c8:	01874703          	lbu	a4,24(a4)
    800004cc:	f32702e3          	beq	a4,s2,0x800003f0
    800004d0:	0af4a023          	sw	a5,160(s1)
    800004d4:	10000513          	li	a0,256
    800004d8:	00000097          	auipc	ra,0x0
    800004dc:	e70080e7          	jalr	-400(ra) # 0x80000348
    800004e0:	0a04a783          	lw	a5,160(s1)
    800004e4:	09c4a703          	lw	a4,156(s1)
    800004e8:	fcf71ae3          	bne	a4,a5,0x800004bc
    800004ec:	f05ff06f          	j	0x800003f0
    800004f0:	00012717          	auipc	a4,0x12
    800004f4:	4d070713          	addi	a4,a4,1232 # 0x800129c0
    800004f8:	0a072783          	lw	a5,160(a4)
    800004fc:	09c72703          	lw	a4,156(a4)
    80000500:	eef708e3          	beq	a4,a5,0x800003f0
    80000504:	fff7879b          	addiw	a5,a5,-1
    80000508:	00012717          	auipc	a4,0x12
    8000050c:	54f72c23          	sw	a5,1368(a4) # 0x80012a60
    80000510:	10000513          	li	a0,256
    80000514:	00000097          	auipc	ra,0x0
    80000518:	e34080e7          	jalr	-460(ra) # 0x80000348
    8000051c:	ed5ff06f          	j	0x800003f0
    80000520:	ec0488e3          	beqz	s1,0x800003f0
    80000524:	efdff06f          	j	0x80000420
    80000528:	00a00513          	li	a0,10
    8000052c:	00000097          	auipc	ra,0x0
    80000530:	e1c080e7          	jalr	-484(ra) # 0x80000348
    80000534:	00012797          	auipc	a5,0x12
    80000538:	48c78793          	addi	a5,a5,1164 # 0x800129c0
    8000053c:	0a07a703          	lw	a4,160(a5)
    80000540:	0017069b          	addiw	a3,a4,1
    80000544:	0006861b          	sext.w	a2,a3
    80000548:	0ad7a023          	sw	a3,160(a5)
    8000054c:	07f77713          	andi	a4,a4,127
    80000550:	00e787b3          	add	a5,a5,a4
    80000554:	00a00713          	li	a4,10
    80000558:	00e78c23          	sb	a4,24(a5)
    8000055c:	00012797          	auipc	a5,0x12
    80000560:	50c7a023          	sw	a2,1280(a5) # 0x80012a5c
    80000564:	00012517          	auipc	a0,0x12
    80000568:	4f450513          	addi	a0,a0,1268 # 0x80012a58
    8000056c:	00003097          	auipc	ra,0x3
    80000570:	bd4080e7          	jalr	-1068(ra) # 0x80003140
    80000574:	e7dff06f          	j	0x800003f0
    80000578:	ff010113          	addi	sp,sp,-16
    8000057c:	00113423          	sd	ra,8(sp)
    80000580:	00813023          	sd	s0,0(sp)
    80000584:	01010413          	addi	s0,sp,16
    80000588:	0000a597          	auipc	a1,0xa
    8000058c:	a8858593          	addi	a1,a1,-1400 # 0x8000a010
    80000590:	00012517          	auipc	a0,0x12
    80000594:	43050513          	addi	a0,a0,1072 # 0x800129c0
    80000598:	00001097          	auipc	ra,0x1
    8000059c:	a1c080e7          	jalr	-1508(ra) # 0x80000fb4
    800005a0:	00000097          	auipc	ra,0x0
    800005a4:	570080e7          	jalr	1392(ra) # 0x80000b10
    800005a8:	00022797          	auipc	a5,0x22
    800005ac:	58878793          	addi	a5,a5,1416 # 0x80022b30
    800005b0:	00000717          	auipc	a4,0x0
    800005b4:	c2470713          	addi	a4,a4,-988 # 0x800001d4
    800005b8:	00e7b823          	sd	a4,16(a5)
    800005bc:	00000717          	auipc	a4,0x0
    800005c0:	b4870713          	addi	a4,a4,-1208 # 0x80000104
    800005c4:	00e7bc23          	sd	a4,24(a5)
    800005c8:	00813083          	ld	ra,8(sp)
    800005cc:	00013403          	ld	s0,0(sp)
    800005d0:	01010113          	addi	sp,sp,16
    800005d4:	00008067          	ret
    800005d8:	fc010113          	addi	sp,sp,-64
    800005dc:	02113c23          	sd	ra,56(sp)
    800005e0:	02813823          	sd	s0,48(sp)
    800005e4:	02913423          	sd	s1,40(sp)
    800005e8:	03213023          	sd	s2,32(sp)
    800005ec:	04010413          	addi	s0,sp,64
    800005f0:	00060463          	beqz	a2,0x800005f8
    800005f4:	0a054463          	bltz	a0,0x8000069c
    800005f8:	00000893          	li	a7,0
    800005fc:	fc840693          	addi	a3,s0,-56
    80000600:	00000793          	li	a5,0
    80000604:	0000a617          	auipc	a2,0xa
    80000608:	a3460613          	addi	a2,a2,-1484 # 0x8000a038
    8000060c:	00078813          	mv	a6,a5
    80000610:	0017879b          	addiw	a5,a5,1
    80000614:	02b57733          	remu	a4,a0,a1
    80000618:	00e60733          	add	a4,a2,a4
    8000061c:	00074703          	lbu	a4,0(a4)
    80000620:	00e68023          	sb	a4,0(a3)
    80000624:	00050713          	mv	a4,a0
    80000628:	02b55533          	divu	a0,a0,a1
    8000062c:	00168693          	addi	a3,a3,1
    80000630:	fcb77ee3          	bgeu	a4,a1,0x8000060c
    80000634:	00088c63          	beqz	a7,0x8000064c
    80000638:	fe078793          	addi	a5,a5,-32
    8000063c:	008787b3          	add	a5,a5,s0
    80000640:	02d00713          	li	a4,45
    80000644:	fee78423          	sb	a4,-24(a5)
    80000648:	0028079b          	addiw	a5,a6,2
    8000064c:	02f05c63          	blez	a5,0x80000684
    80000650:	fc840713          	addi	a4,s0,-56
    80000654:	00f704b3          	add	s1,a4,a5
    80000658:	fff70913          	addi	s2,a4,-1
    8000065c:	00f90933          	add	s2,s2,a5
    80000660:	fff7879b          	addiw	a5,a5,-1
    80000664:	02079793          	slli	a5,a5,0x20
    80000668:	0207d793          	srli	a5,a5,0x20
    8000066c:	40f90933          	sub	s2,s2,a5
    80000670:	fff4c503          	lbu	a0,-1(s1)
    80000674:	00000097          	auipc	ra,0x0
    80000678:	cd4080e7          	jalr	-812(ra) # 0x80000348
    8000067c:	fff48493          	addi	s1,s1,-1
    80000680:	ff2498e3          	bne	s1,s2,0x80000670
    80000684:	03813083          	ld	ra,56(sp)
    80000688:	03013403          	ld	s0,48(sp)
    8000068c:	02813483          	ld	s1,40(sp)
    80000690:	02013903          	ld	s2,32(sp)
    80000694:	04010113          	addi	sp,sp,64
    80000698:	00008067          	ret
    8000069c:	40a00533          	neg	a0,a0
    800006a0:	00100893          	li	a7,1
    800006a4:	f59ff06f          	j	0x800005fc
    800006a8:	f4010113          	addi	sp,sp,-192
    800006ac:	06113c23          	sd	ra,120(sp)
    800006b0:	06813823          	sd	s0,112(sp)
    800006b4:	06913423          	sd	s1,104(sp)
    800006b8:	07213023          	sd	s2,96(sp)
    800006bc:	05313c23          	sd	s3,88(sp)
    800006c0:	05413823          	sd	s4,80(sp)
    800006c4:	05513423          	sd	s5,72(sp)
    800006c8:	05613023          	sd	s6,64(sp)
    800006cc:	03713c23          	sd	s7,56(sp)
    800006d0:	03813823          	sd	s8,48(sp)
    800006d4:	03913423          	sd	s9,40(sp)
    800006d8:	03a13023          	sd	s10,32(sp)
    800006dc:	01b13c23          	sd	s11,24(sp)
    800006e0:	08010413          	addi	s0,sp,128
    800006e4:	00050a13          	mv	s4,a0
    800006e8:	00b43423          	sd	a1,8(s0)
    800006ec:	00c43823          	sd	a2,16(s0)
    800006f0:	00d43c23          	sd	a3,24(s0)
    800006f4:	02e43023          	sd	a4,32(s0)
    800006f8:	02f43423          	sd	a5,40(s0)
    800006fc:	03043823          	sd	a6,48(s0)
    80000700:	03143c23          	sd	a7,56(s0)
    80000704:	0000a797          	auipc	a5,0xa
    80000708:	2907a783          	lw	a5,656(a5) # 0x8000a994
    8000070c:	02078e63          	beqz	a5,0x80000748
    80000710:	00840793          	addi	a5,s0,8
    80000714:	f8f43423          	sd	a5,-120(s0)
    80000718:	000a4503          	lbu	a0,0(s4)
    8000071c:	30050263          	beqz	a0,0x80000a20
    80000720:	00000993          	li	s3,0
    80000724:	02500a93          	li	s5,37
    80000728:	06400b13          	li	s6,100
    8000072c:	06c00c13          	li	s8,108
    80000730:	07500c93          	li	s9,117
    80000734:	07800d13          	li	s10,120
    80000738:	07000d93          	li	s11,112
    8000073c:	0000ab97          	auipc	s7,0xa
    80000740:	8fcb8b93          	addi	s7,s7,-1796 # 0x8000a038
    80000744:	0340006f          	j	0x80000778
    80000748:	00012517          	auipc	a0,0x12
    8000074c:	32050513          	addi	a0,a0,800 # 0x80012a68
    80000750:	00001097          	auipc	ra,0x1
    80000754:	948080e7          	jalr	-1720(ra) # 0x80001098
    80000758:	fb9ff06f          	j	0x80000710
    8000075c:	00000097          	auipc	ra,0x0
    80000760:	bec080e7          	jalr	-1044(ra) # 0x80000348
    80000764:	00098493          	mv	s1,s3
    80000768:	0014899b          	addiw	s3,s1,1
    8000076c:	013a07b3          	add	a5,s4,s3
    80000770:	0007c503          	lbu	a0,0(a5)
    80000774:	2a050663          	beqz	a0,0x80000a20
    80000778:	ff5512e3          	bne	a0,s5,0x8000075c
    8000077c:	0019849b          	addiw	s1,s3,1
    80000780:	009a07b3          	add	a5,s4,s1
    80000784:	0007c903          	lbu	s2,0(a5)
    80000788:	28090c63          	beqz	s2,0x80000a20
    8000078c:	0017c783          	lbu	a5,1(a5)
    80000790:	00078693          	mv	a3,a5
    80000794:	00078663          	beqz	a5,0x800007a0
    80000798:	009a0733          	add	a4,s4,s1
    8000079c:	00274683          	lbu	a3,2(a4)
    800007a0:	03690c63          	beq	s2,s6,0x800007d8
    800007a4:	05890c63          	beq	s2,s8,0x800007fc
    800007a8:	11990463          	beq	s2,s9,0x800008b0
    800007ac:	17a90c63          	beq	s2,s10,0x80000924
    800007b0:	1db90063          	beq	s2,s11,0x80000970
    800007b4:	06300793          	li	a5,99
    800007b8:	20f90463          	beq	s2,a5,0x800009c0
    800007bc:	07300793          	li	a5,115
    800007c0:	20f90e63          	beq	s2,a5,0x800009dc
    800007c4:	05591663          	bne	s2,s5,0x80000810
    800007c8:	000a8513          	mv	a0,s5
    800007cc:	00000097          	auipc	ra,0x0
    800007d0:	b7c080e7          	jalr	-1156(ra) # 0x80000348
    800007d4:	f95ff06f          	j	0x80000768
    800007d8:	f8843783          	ld	a5,-120(s0)
    800007dc:	00878713          	addi	a4,a5,8
    800007e0:	f8e43423          	sd	a4,-120(s0)
    800007e4:	00100613          	li	a2,1
    800007e8:	00a00593          	li	a1,10
    800007ec:	0007a503          	lw	a0,0(a5)
    800007f0:	00000097          	auipc	ra,0x0
    800007f4:	de8080e7          	jalr	-536(ra) # 0x800005d8
    800007f8:	f71ff06f          	j	0x80000768
    800007fc:	03678863          	beq	a5,s6,0x8000082c
    80000800:	05878a63          	beq	a5,s8,0x80000854
    80000804:	0d978863          	beq	a5,s9,0x800008d4
    80000808:	05878863          	beq	a5,s8,0x80000858
    8000080c:	13a78e63          	beq	a5,s10,0x80000948
    80000810:	000a8513          	mv	a0,s5
    80000814:	00000097          	auipc	ra,0x0
    80000818:	b34080e7          	jalr	-1228(ra) # 0x80000348
    8000081c:	00090513          	mv	a0,s2
    80000820:	00000097          	auipc	ra,0x0
    80000824:	b28080e7          	jalr	-1240(ra) # 0x80000348
    80000828:	f41ff06f          	j	0x80000768
    8000082c:	f8843783          	ld	a5,-120(s0)
    80000830:	00878713          	addi	a4,a5,8
    80000834:	f8e43423          	sd	a4,-120(s0)
    80000838:	00100613          	li	a2,1
    8000083c:	00a00593          	li	a1,10
    80000840:	0007b503          	ld	a0,0(a5)
    80000844:	00000097          	auipc	ra,0x0
    80000848:	d94080e7          	jalr	-620(ra) # 0x800005d8
    8000084c:	0029849b          	addiw	s1,s3,2
    80000850:	f19ff06f          	j	0x80000768
    80000854:	03668a63          	beq	a3,s6,0x80000888
    80000858:	0b968263          	beq	a3,s9,0x800008fc
    8000085c:	fba69ae3          	bne	a3,s10,0x80000810
    80000860:	f8843783          	ld	a5,-120(s0)
    80000864:	00878713          	addi	a4,a5,8
    80000868:	f8e43423          	sd	a4,-120(s0)
    8000086c:	00000613          	li	a2,0
    80000870:	01000593          	li	a1,16
    80000874:	0007b503          	ld	a0,0(a5)
    80000878:	00000097          	auipc	ra,0x0
    8000087c:	d60080e7          	jalr	-672(ra) # 0x800005d8
    80000880:	0039849b          	addiw	s1,s3,3
    80000884:	ee5ff06f          	j	0x80000768
    80000888:	f8843783          	ld	a5,-120(s0)
    8000088c:	00878713          	addi	a4,a5,8
    80000890:	f8e43423          	sd	a4,-120(s0)
    80000894:	00100613          	li	a2,1
    80000898:	00a00593          	li	a1,10
    8000089c:	0007b503          	ld	a0,0(a5)
    800008a0:	00000097          	auipc	ra,0x0
    800008a4:	d38080e7          	jalr	-712(ra) # 0x800005d8
    800008a8:	0039849b          	addiw	s1,s3,3
    800008ac:	ebdff06f          	j	0x80000768
    800008b0:	f8843783          	ld	a5,-120(s0)
    800008b4:	00878713          	addi	a4,a5,8
    800008b8:	f8e43423          	sd	a4,-120(s0)
    800008bc:	00000613          	li	a2,0
    800008c0:	00a00593          	li	a1,10
    800008c4:	0007e503          	lwu	a0,0(a5)
    800008c8:	00000097          	auipc	ra,0x0
    800008cc:	d10080e7          	jalr	-752(ra) # 0x800005d8
    800008d0:	e99ff06f          	j	0x80000768
    800008d4:	f8843783          	ld	a5,-120(s0)
    800008d8:	00878713          	addi	a4,a5,8
    800008dc:	f8e43423          	sd	a4,-120(s0)
    800008e0:	00000613          	li	a2,0
    800008e4:	00a00593          	li	a1,10
    800008e8:	0007b503          	ld	a0,0(a5)
    800008ec:	00000097          	auipc	ra,0x0
    800008f0:	cec080e7          	jalr	-788(ra) # 0x800005d8
    800008f4:	0029849b          	addiw	s1,s3,2
    800008f8:	e71ff06f          	j	0x80000768
    800008fc:	f8843783          	ld	a5,-120(s0)
    80000900:	00878713          	addi	a4,a5,8
    80000904:	f8e43423          	sd	a4,-120(s0)
    80000908:	00000613          	li	a2,0
    8000090c:	00a00593          	li	a1,10
    80000910:	0007b503          	ld	a0,0(a5)
    80000914:	00000097          	auipc	ra,0x0
    80000918:	cc4080e7          	jalr	-828(ra) # 0x800005d8
    8000091c:	0039849b          	addiw	s1,s3,3
    80000920:	e49ff06f          	j	0x80000768
    80000924:	f8843783          	ld	a5,-120(s0)
    80000928:	00878713          	addi	a4,a5,8
    8000092c:	f8e43423          	sd	a4,-120(s0)
    80000930:	00000613          	li	a2,0
    80000934:	01000593          	li	a1,16
    80000938:	0007e503          	lwu	a0,0(a5)
    8000093c:	00000097          	auipc	ra,0x0
    80000940:	c9c080e7          	jalr	-868(ra) # 0x800005d8
    80000944:	e25ff06f          	j	0x80000768
    80000948:	f8843783          	ld	a5,-120(s0)
    8000094c:	00878713          	addi	a4,a5,8
    80000950:	f8e43423          	sd	a4,-120(s0)
    80000954:	00000613          	li	a2,0
    80000958:	01000593          	li	a1,16
    8000095c:	0007b503          	ld	a0,0(a5)
    80000960:	00000097          	auipc	ra,0x0
    80000964:	c78080e7          	jalr	-904(ra) # 0x800005d8
    80000968:	0029849b          	addiw	s1,s3,2
    8000096c:	dfdff06f          	j	0x80000768
    80000970:	f8843783          	ld	a5,-120(s0)
    80000974:	00878713          	addi	a4,a5,8
    80000978:	f8e43423          	sd	a4,-120(s0)
    8000097c:	0007b983          	ld	s3,0(a5)
    80000980:	03000513          	li	a0,48
    80000984:	00000097          	auipc	ra,0x0
    80000988:	9c4080e7          	jalr	-1596(ra) # 0x80000348
    8000098c:	000d0513          	mv	a0,s10
    80000990:	00000097          	auipc	ra,0x0
    80000994:	9b8080e7          	jalr	-1608(ra) # 0x80000348
    80000998:	01000913          	li	s2,16
    8000099c:	03c9d793          	srli	a5,s3,0x3c
    800009a0:	00fb87b3          	add	a5,s7,a5
    800009a4:	0007c503          	lbu	a0,0(a5)
    800009a8:	00000097          	auipc	ra,0x0
    800009ac:	9a0080e7          	jalr	-1632(ra) # 0x80000348
    800009b0:	00499993          	slli	s3,s3,0x4
    800009b4:	fff9091b          	addiw	s2,s2,-1
    800009b8:	fe0912e3          	bnez	s2,0x8000099c
    800009bc:	dadff06f          	j	0x80000768
    800009c0:	f8843783          	ld	a5,-120(s0)
    800009c4:	00878713          	addi	a4,a5,8
    800009c8:	f8e43423          	sd	a4,-120(s0)
    800009cc:	0007a503          	lw	a0,0(a5)
    800009d0:	00000097          	auipc	ra,0x0
    800009d4:	978080e7          	jalr	-1672(ra) # 0x80000348
    800009d8:	d91ff06f          	j	0x80000768
    800009dc:	f8843783          	ld	a5,-120(s0)
    800009e0:	00878713          	addi	a4,a5,8
    800009e4:	f8e43423          	sd	a4,-120(s0)
    800009e8:	0007b903          	ld	s2,0(a5)
    800009ec:	02090263          	beqz	s2,0x80000a10
    800009f0:	00094503          	lbu	a0,0(s2)
    800009f4:	d6050ae3          	beqz	a0,0x80000768
    800009f8:	00000097          	auipc	ra,0x0
    800009fc:	950080e7          	jalr	-1712(ra) # 0x80000348
    80000a00:	00190913          	addi	s2,s2,1
    80000a04:	00094503          	lbu	a0,0(s2)
    80000a08:	fe0518e3          	bnez	a0,0x800009f8
    80000a0c:	d5dff06f          	j	0x80000768
    80000a10:	00009917          	auipc	s2,0x9
    80000a14:	60890913          	addi	s2,s2,1544 # 0x8000a018
    80000a18:	02800513          	li	a0,40
    80000a1c:	fddff06f          	j	0x800009f8
    80000a20:	0000a797          	auipc	a5,0xa
    80000a24:	f747a783          	lw	a5,-140(a5) # 0x8000a994
    80000a28:	04078263          	beqz	a5,0x80000a6c
    80000a2c:	00000513          	li	a0,0
    80000a30:	07813083          	ld	ra,120(sp)
    80000a34:	07013403          	ld	s0,112(sp)
    80000a38:	06813483          	ld	s1,104(sp)
    80000a3c:	06013903          	ld	s2,96(sp)
    80000a40:	05813983          	ld	s3,88(sp)
    80000a44:	05013a03          	ld	s4,80(sp)
    80000a48:	04813a83          	ld	s5,72(sp)
    80000a4c:	04013b03          	ld	s6,64(sp)
    80000a50:	03813b83          	ld	s7,56(sp)
    80000a54:	03013c03          	ld	s8,48(sp)
    80000a58:	02813c83          	ld	s9,40(sp)
    80000a5c:	02013d03          	ld	s10,32(sp)
    80000a60:	01813d83          	ld	s11,24(sp)
    80000a64:	0c010113          	addi	sp,sp,192
    80000a68:	00008067          	ret
    80000a6c:	00012517          	auipc	a0,0x12
    80000a70:	ffc50513          	addi	a0,a0,-4 # 0x80012a68
    80000a74:	00000097          	auipc	ra,0x0
    80000a78:	71c080e7          	jalr	1820(ra) # 0x80001190
    80000a7c:	fb1ff06f          	j	0x80000a2c
    80000a80:	fe010113          	addi	sp,sp,-32
    80000a84:	00113c23          	sd	ra,24(sp)
    80000a88:	00813823          	sd	s0,16(sp)
    80000a8c:	00913423          	sd	s1,8(sp)
    80000a90:	01213023          	sd	s2,0(sp)
    80000a94:	02010413          	addi	s0,sp,32
    80000a98:	00050493          	mv	s1,a0
    80000a9c:	00100913          	li	s2,1
    80000aa0:	0000a797          	auipc	a5,0xa
    80000aa4:	ef27aa23          	sw	s2,-268(a5) # 0x8000a994
    80000aa8:	00009517          	auipc	a0,0x9
    80000aac:	57850513          	addi	a0,a0,1400 # 0x8000a020
    80000ab0:	00000097          	auipc	ra,0x0
    80000ab4:	bf8080e7          	jalr	-1032(ra) # 0x800006a8
    80000ab8:	00048593          	mv	a1,s1
    80000abc:	00009517          	auipc	a0,0x9
    80000ac0:	56c50513          	addi	a0,a0,1388 # 0x8000a028
    80000ac4:	00000097          	auipc	ra,0x0
    80000ac8:	be4080e7          	jalr	-1052(ra) # 0x800006a8
    80000acc:	0000a797          	auipc	a5,0xa
    80000ad0:	ed27a223          	sw	s2,-316(a5) # 0x8000a990
    80000ad4:	0000006f          	j	0x80000ad4
    80000ad8:	ff010113          	addi	sp,sp,-16
    80000adc:	00113423          	sd	ra,8(sp)
    80000ae0:	00813023          	sd	s0,0(sp)
    80000ae4:	01010413          	addi	s0,sp,16
    80000ae8:	00009597          	auipc	a1,0x9
    80000aec:	54858593          	addi	a1,a1,1352 # 0x8000a030
    80000af0:	00012517          	auipc	a0,0x12
    80000af4:	f7850513          	addi	a0,a0,-136 # 0x80012a68
    80000af8:	00000097          	auipc	ra,0x0
    80000afc:	4bc080e7          	jalr	1212(ra) # 0x80000fb4
    80000b00:	00813083          	ld	ra,8(sp)
    80000b04:	00013403          	ld	s0,0(sp)
    80000b08:	01010113          	addi	sp,sp,16
    80000b0c:	00008067          	ret
    80000b10:	ff010113          	addi	sp,sp,-16
    80000b14:	00113423          	sd	ra,8(sp)
    80000b18:	00813023          	sd	s0,0(sp)
    80000b1c:	01010413          	addi	s0,sp,16
    80000b20:	100007b7          	lui	a5,0x10000
    80000b24:	000780a3          	sb	zero,1(a5) # 0x10000001
    80000b28:	f8000713          	li	a4,-128
    80000b2c:	00e781a3          	sb	a4,3(a5)
    80000b30:	00300713          	li	a4,3
    80000b34:	00e78023          	sb	a4,0(a5)
    80000b38:	000780a3          	sb	zero,1(a5)
    80000b3c:	00e781a3          	sb	a4,3(a5)
    80000b40:	00700693          	li	a3,7
    80000b44:	00d78123          	sb	a3,2(a5)
    80000b48:	00e780a3          	sb	a4,1(a5)
    80000b4c:	00009597          	auipc	a1,0x9
    80000b50:	50458593          	addi	a1,a1,1284 # 0x8000a050
    80000b54:	00012517          	auipc	a0,0x12
    80000b58:	f2c50513          	addi	a0,a0,-212 # 0x80012a80
    80000b5c:	00000097          	auipc	ra,0x0
    80000b60:	458080e7          	jalr	1112(ra) # 0x80000fb4
    80000b64:	00813083          	ld	ra,8(sp)
    80000b68:	00013403          	ld	s0,0(sp)
    80000b6c:	01010113          	addi	sp,sp,16
    80000b70:	00008067          	ret
    80000b74:	fb010113          	addi	sp,sp,-80
    80000b78:	04113423          	sd	ra,72(sp)
    80000b7c:	04813023          	sd	s0,64(sp)
    80000b80:	02913c23          	sd	s1,56(sp)
    80000b84:	03213823          	sd	s2,48(sp)
    80000b88:	03313423          	sd	s3,40(sp)
    80000b8c:	03413023          	sd	s4,32(sp)
    80000b90:	01513c23          	sd	s5,24(sp)
    80000b94:	01613823          	sd	s6,16(sp)
    80000b98:	01713423          	sd	s7,8(sp)
    80000b9c:	05010413          	addi	s0,sp,80
    80000ba0:	00050493          	mv	s1,a0
    80000ba4:	00058913          	mv	s2,a1
    80000ba8:	00012517          	auipc	a0,0x12
    80000bac:	ed850513          	addi	a0,a0,-296 # 0x80012a80
    80000bb0:	00000097          	auipc	ra,0x0
    80000bb4:	4e8080e7          	jalr	1256(ra) # 0x80001098
    80000bb8:	07205c63          	blez	s2,0x80000c30
    80000bbc:	00048a13          	mv	s4,s1
    80000bc0:	00148493          	addi	s1,s1,1
    80000bc4:	fff9079b          	addiw	a5,s2,-1
    80000bc8:	02079793          	slli	a5,a5,0x20
    80000bcc:	0207d793          	srli	a5,a5,0x20
    80000bd0:	00f48ab3          	add	s5,s1,a5
    80000bd4:	0000a497          	auipc	s1,0xa
    80000bd8:	dc848493          	addi	s1,s1,-568 # 0x8000a99c
    80000bdc:	00012997          	auipc	s3,0x12
    80000be0:	ea498993          	addi	s3,s3,-348 # 0x80012a80
    80000be4:	0000a917          	auipc	s2,0xa
    80000be8:	db490913          	addi	s2,s2,-588 # 0x8000a998
    80000bec:	10000bb7          	lui	s7,0x10000
    80000bf0:	00100b13          	li	s6,1
    80000bf4:	0300006f          	j	0x80000c24
    80000bf8:	00098593          	mv	a1,s3
    80000bfc:	00090513          	mv	a0,s2
    80000c00:	00002097          	auipc	ra,0x2
    80000c04:	4b0080e7          	jalr	1200(ra) # 0x800030b0
    80000c08:	0004a783          	lw	a5,0(s1)
    80000c0c:	fe0796e3          	bnez	a5,0x80000bf8
    80000c10:	000a4783          	lbu	a5,0(s4)
    80000c14:	00fb8023          	sb	a5,0(s7) # 0x10000000
    80000c18:	0164a023          	sw	s6,0(s1)
    80000c1c:	001a0a13          	addi	s4,s4,1
    80000c20:	015a0863          	beq	s4,s5,0x80000c30
    80000c24:	0004a783          	lw	a5,0(s1)
    80000c28:	fc0798e3          	bnez	a5,0x80000bf8
    80000c2c:	fe5ff06f          	j	0x80000c10
    80000c30:	00012517          	auipc	a0,0x12
    80000c34:	e5050513          	addi	a0,a0,-432 # 0x80012a80
    80000c38:	00000097          	auipc	ra,0x0
    80000c3c:	558080e7          	jalr	1368(ra) # 0x80001190
    80000c40:	04813083          	ld	ra,72(sp)
    80000c44:	04013403          	ld	s0,64(sp)
    80000c48:	03813483          	ld	s1,56(sp)
    80000c4c:	03013903          	ld	s2,48(sp)
    80000c50:	02813983          	ld	s3,40(sp)
    80000c54:	02013a03          	ld	s4,32(sp)
    80000c58:	01813a83          	ld	s5,24(sp)
    80000c5c:	01013b03          	ld	s6,16(sp)
    80000c60:	00813b83          	ld	s7,8(sp)
    80000c64:	05010113          	addi	sp,sp,80
    80000c68:	00008067          	ret
    80000c6c:	fe010113          	addi	sp,sp,-32
    80000c70:	00113c23          	sd	ra,24(sp)
    80000c74:	00813823          	sd	s0,16(sp)
    80000c78:	00913423          	sd	s1,8(sp)
    80000c7c:	02010413          	addi	s0,sp,32
    80000c80:	00050493          	mv	s1,a0
    80000c84:	0000a797          	auipc	a5,0xa
    80000c88:	d107a783          	lw	a5,-752(a5) # 0x8000a994
    80000c8c:	00078c63          	beqz	a5,0x80000ca4
    80000c90:	0000a797          	auipc	a5,0xa
    80000c94:	d007a783          	lw	a5,-768(a5) # 0x8000a990
    80000c98:	10000737          	lui	a4,0x10000
    80000c9c:	00078a63          	beqz	a5,0x80000cb0
    80000ca0:	0000006f          	j	0x80000ca0
    80000ca4:	00000097          	auipc	ra,0x0
    80000ca8:	380080e7          	jalr	896(ra) # 0x80001024
    80000cac:	fe5ff06f          	j	0x80000c90
    80000cb0:	00574783          	lbu	a5,5(a4) # 0x10000005
    80000cb4:	0207f793          	andi	a5,a5,32
    80000cb8:	fe078ce3          	beqz	a5,0x80000cb0
    80000cbc:	0ff4f513          	zext.b	a0,s1
    80000cc0:	100007b7          	lui	a5,0x10000
    80000cc4:	00a78023          	sb	a0,0(a5) # 0x10000000
    80000cc8:	0000a797          	auipc	a5,0xa
    80000ccc:	ccc7a783          	lw	a5,-820(a5) # 0x8000a994
    80000cd0:	00078c63          	beqz	a5,0x80000ce8
    80000cd4:	01813083          	ld	ra,24(sp)
    80000cd8:	01013403          	ld	s0,16(sp)
    80000cdc:	00813483          	ld	s1,8(sp)
    80000ce0:	02010113          	addi	sp,sp,32
    80000ce4:	00008067          	ret
    80000ce8:	00000097          	auipc	ra,0x0
    80000cec:	428080e7          	jalr	1064(ra) # 0x80001110
    80000cf0:	fe5ff06f          	j	0x80000cd4
    80000cf4:	ff010113          	addi	sp,sp,-16
    80000cf8:	00813423          	sd	s0,8(sp)
    80000cfc:	01010413          	addi	s0,sp,16
    80000d00:	100007b7          	lui	a5,0x10000
    80000d04:	0057c783          	lbu	a5,5(a5) # 0x10000005
    80000d08:	0017f793          	andi	a5,a5,1
    80000d0c:	00078c63          	beqz	a5,0x80000d24
    80000d10:	100007b7          	lui	a5,0x10000
    80000d14:	0007c503          	lbu	a0,0(a5) # 0x10000000
    80000d18:	00813403          	ld	s0,8(sp)
    80000d1c:	01010113          	addi	sp,sp,16
    80000d20:	00008067          	ret
    80000d24:	fff00513          	li	a0,-1
    80000d28:	ff1ff06f          	j	0x80000d18
    80000d2c:	fe010113          	addi	sp,sp,-32
    80000d30:	00113c23          	sd	ra,24(sp)
    80000d34:	00813823          	sd	s0,16(sp)
    80000d38:	00913423          	sd	s1,8(sp)
    80000d3c:	02010413          	addi	s0,sp,32
    80000d40:	100004b7          	lui	s1,0x10000
    80000d44:	0024c783          	lbu	a5,2(s1) # 0x10000002
    80000d48:	00012517          	auipc	a0,0x12
    80000d4c:	d3850513          	addi	a0,a0,-712 # 0x80012a80
    80000d50:	00000097          	auipc	ra,0x0
    80000d54:	348080e7          	jalr	840(ra) # 0x80001098
    80000d58:	0054c783          	lbu	a5,5(s1)
    80000d5c:	0207f793          	andi	a5,a5,32
    80000d60:	00079e63          	bnez	a5,0x80000d7c
    80000d64:	00012517          	auipc	a0,0x12
    80000d68:	d1c50513          	addi	a0,a0,-740 # 0x80012a80
    80000d6c:	00000097          	auipc	ra,0x0
    80000d70:	424080e7          	jalr	1060(ra) # 0x80001190
    80000d74:	fff00493          	li	s1,-1
    80000d78:	0280006f          	j	0x80000da0
    80000d7c:	0000a797          	auipc	a5,0xa
    80000d80:	c207a023          	sw	zero,-992(a5) # 0x8000a99c
    80000d84:	0000a517          	auipc	a0,0xa
    80000d88:	c1450513          	addi	a0,a0,-1004 # 0x8000a998
    80000d8c:	00002097          	auipc	ra,0x2
    80000d90:	3b4080e7          	jalr	948(ra) # 0x80003140
    80000d94:	fd1ff06f          	j	0x80000d64
    80000d98:	fffff097          	auipc	ra,0xfffff
    80000d9c:	608080e7          	jalr	1544(ra) # 0x800003a0
    80000da0:	00000097          	auipc	ra,0x0
    80000da4:	f54080e7          	jalr	-172(ra) # 0x80000cf4
    80000da8:	fe9518e3          	bne	a0,s1,0x80000d98
    80000dac:	01813083          	ld	ra,24(sp)
    80000db0:	01013403          	ld	s0,16(sp)
    80000db4:	00813483          	ld	s1,8(sp)
    80000db8:	02010113          	addi	sp,sp,32
    80000dbc:	00008067          	ret
    80000dc0:	fe010113          	addi	sp,sp,-32
    80000dc4:	00113c23          	sd	ra,24(sp)
    80000dc8:	00813823          	sd	s0,16(sp)
    80000dcc:	00913423          	sd	s1,8(sp)
    80000dd0:	01213023          	sd	s2,0(sp)
    80000dd4:	02010413          	addi	s0,sp,32
    80000dd8:	03451793          	slli	a5,a0,0x34
    80000ddc:	06079a63          	bnez	a5,0x80000e50
    80000de0:	00050493          	mv	s1,a0
    80000de4:	00023797          	auipc	a5,0x23
    80000de8:	ee478793          	addi	a5,a5,-284 # 0x80023cc8
    80000dec:	06f56263          	bltu	a0,a5,0x80000e50
    80000df0:	01100793          	li	a5,17
    80000df4:	01b79793          	slli	a5,a5,0x1b
    80000df8:	04f57c63          	bgeu	a0,a5,0x80000e50
    80000dfc:	00001637          	lui	a2,0x1
    80000e00:	00100593          	li	a1,1
    80000e04:	00000097          	auipc	ra,0x0
    80000e08:	3ec080e7          	jalr	1004(ra) # 0x800011f0
    80000e0c:	00012917          	auipc	s2,0x12
    80000e10:	c8c90913          	addi	s2,s2,-884 # 0x80012a98
    80000e14:	00090513          	mv	a0,s2
    80000e18:	00000097          	auipc	ra,0x0
    80000e1c:	280080e7          	jalr	640(ra) # 0x80001098
    80000e20:	01893783          	ld	a5,24(s2)
    80000e24:	00f4b023          	sd	a5,0(s1)
    80000e28:	00993c23          	sd	s1,24(s2)
    80000e2c:	00090513          	mv	a0,s2
    80000e30:	00000097          	auipc	ra,0x0
    80000e34:	360080e7          	jalr	864(ra) # 0x80001190
    80000e38:	01813083          	ld	ra,24(sp)
    80000e3c:	01013403          	ld	s0,16(sp)
    80000e40:	00813483          	ld	s1,8(sp)
    80000e44:	00013903          	ld	s2,0(sp)
    80000e48:	02010113          	addi	sp,sp,32
    80000e4c:	00008067          	ret
    80000e50:	00009517          	auipc	a0,0x9
    80000e54:	20850513          	addi	a0,a0,520 # 0x8000a058
    80000e58:	00000097          	auipc	ra,0x0
    80000e5c:	c28080e7          	jalr	-984(ra) # 0x80000a80
    80000e60:	fd010113          	addi	sp,sp,-48
    80000e64:	02113423          	sd	ra,40(sp)
    80000e68:	02813023          	sd	s0,32(sp)
    80000e6c:	00913c23          	sd	s1,24(sp)
    80000e70:	01213823          	sd	s2,16(sp)
    80000e74:	01313423          	sd	s3,8(sp)
    80000e78:	01413023          	sd	s4,0(sp)
    80000e7c:	03010413          	addi	s0,sp,48
    80000e80:	000017b7          	lui	a5,0x1
    80000e84:	fff78713          	addi	a4,a5,-1 # 0xfff
    80000e88:	00e504b3          	add	s1,a0,a4
    80000e8c:	fffff737          	lui	a4,0xfffff
    80000e90:	00e4f4b3          	and	s1,s1,a4
    80000e94:	00f484b3          	add	s1,s1,a5
    80000e98:	0295e263          	bltu	a1,s1,0x80000ebc
    80000e9c:	00058913          	mv	s2,a1
    80000ea0:	fffffa37          	lui	s4,0xfffff
    80000ea4:	000019b7          	lui	s3,0x1
    80000ea8:	01448533          	add	a0,s1,s4
    80000eac:	00000097          	auipc	ra,0x0
    80000eb0:	f14080e7          	jalr	-236(ra) # 0x80000dc0
    80000eb4:	013484b3          	add	s1,s1,s3
    80000eb8:	fe9978e3          	bgeu	s2,s1,0x80000ea8
    80000ebc:	02813083          	ld	ra,40(sp)
    80000ec0:	02013403          	ld	s0,32(sp)
    80000ec4:	01813483          	ld	s1,24(sp)
    80000ec8:	01013903          	ld	s2,16(sp)
    80000ecc:	00813983          	ld	s3,8(sp)
    80000ed0:	00013a03          	ld	s4,0(sp)
    80000ed4:	03010113          	addi	sp,sp,48
    80000ed8:	00008067          	ret
    80000edc:	ff010113          	addi	sp,sp,-16
    80000ee0:	00113423          	sd	ra,8(sp)
    80000ee4:	00813023          	sd	s0,0(sp)
    80000ee8:	01010413          	addi	s0,sp,16
    80000eec:	00009597          	auipc	a1,0x9
    80000ef0:	17458593          	addi	a1,a1,372 # 0x8000a060
    80000ef4:	00012517          	auipc	a0,0x12
    80000ef8:	ba450513          	addi	a0,a0,-1116 # 0x80012a98
    80000efc:	00000097          	auipc	ra,0x0
    80000f00:	0b8080e7          	jalr	184(ra) # 0x80000fb4
    80000f04:	01100593          	li	a1,17
    80000f08:	01b59593          	slli	a1,a1,0x1b
    80000f0c:	00023517          	auipc	a0,0x23
    80000f10:	dbc50513          	addi	a0,a0,-580 # 0x80023cc8
    80000f14:	00000097          	auipc	ra,0x0
    80000f18:	f4c080e7          	jalr	-180(ra) # 0x80000e60
    80000f1c:	00813083          	ld	ra,8(sp)
    80000f20:	00013403          	ld	s0,0(sp)
    80000f24:	01010113          	addi	sp,sp,16
    80000f28:	00008067          	ret
    80000f2c:	fe010113          	addi	sp,sp,-32
    80000f30:	00113c23          	sd	ra,24(sp)
    80000f34:	00813823          	sd	s0,16(sp)
    80000f38:	00913423          	sd	s1,8(sp)
    80000f3c:	02010413          	addi	s0,sp,32
    80000f40:	00012497          	auipc	s1,0x12
    80000f44:	b5848493          	addi	s1,s1,-1192 # 0x80012a98
    80000f48:	00048513          	mv	a0,s1
    80000f4c:	00000097          	auipc	ra,0x0
    80000f50:	14c080e7          	jalr	332(ra) # 0x80001098
    80000f54:	0184b483          	ld	s1,24(s1)
    80000f58:	04048463          	beqz	s1,0x80000fa0
    80000f5c:	0004b783          	ld	a5,0(s1)
    80000f60:	00012517          	auipc	a0,0x12
    80000f64:	b3850513          	addi	a0,a0,-1224 # 0x80012a98
    80000f68:	00f53c23          	sd	a5,24(a0)
    80000f6c:	00000097          	auipc	ra,0x0
    80000f70:	224080e7          	jalr	548(ra) # 0x80001190
    80000f74:	00001637          	lui	a2,0x1
    80000f78:	00500593          	li	a1,5
    80000f7c:	00048513          	mv	a0,s1
    80000f80:	00000097          	auipc	ra,0x0
    80000f84:	270080e7          	jalr	624(ra) # 0x800011f0
    80000f88:	00048513          	mv	a0,s1
    80000f8c:	01813083          	ld	ra,24(sp)
    80000f90:	01013403          	ld	s0,16(sp)
    80000f94:	00813483          	ld	s1,8(sp)
    80000f98:	02010113          	addi	sp,sp,32
    80000f9c:	00008067          	ret
    80000fa0:	00012517          	auipc	a0,0x12
    80000fa4:	af850513          	addi	a0,a0,-1288 # 0x80012a98
    80000fa8:	00000097          	auipc	ra,0x0
    80000fac:	1e8080e7          	jalr	488(ra) # 0x80001190
    80000fb0:	fd9ff06f          	j	0x80000f88
    80000fb4:	ff010113          	addi	sp,sp,-16
    80000fb8:	00813423          	sd	s0,8(sp)
    80000fbc:	01010413          	addi	s0,sp,16
    80000fc0:	00b53423          	sd	a1,8(a0)
    80000fc4:	00052023          	sw	zero,0(a0)
    80000fc8:	00053823          	sd	zero,16(a0)
    80000fcc:	00813403          	ld	s0,8(sp)
    80000fd0:	01010113          	addi	sp,sp,16
    80000fd4:	00008067          	ret
    80000fd8:	00052783          	lw	a5,0(a0)
    80000fdc:	00079663          	bnez	a5,0x80000fe8
    80000fe0:	00000513          	li	a0,0
    80000fe4:	00008067          	ret
    80000fe8:	fe010113          	addi	sp,sp,-32
    80000fec:	00113c23          	sd	ra,24(sp)
    80000ff0:	00813823          	sd	s0,16(sp)
    80000ff4:	00913423          	sd	s1,8(sp)
    80000ff8:	02010413          	addi	s0,sp,32
    80000ffc:	01053483          	ld	s1,16(a0)
    80001000:	00001097          	auipc	ra,0x1
    80001004:	6c8080e7          	jalr	1736(ra) # 0x800026c8
    80001008:	40a48533          	sub	a0,s1,a0
    8000100c:	00153513          	seqz	a0,a0
    80001010:	01813083          	ld	ra,24(sp)
    80001014:	01013403          	ld	s0,16(sp)
    80001018:	00813483          	ld	s1,8(sp)
    8000101c:	02010113          	addi	sp,sp,32
    80001020:	00008067          	ret
    80001024:	fe010113          	addi	sp,sp,-32
    80001028:	00113c23          	sd	ra,24(sp)
    8000102c:	00813823          	sd	s0,16(sp)
    80001030:	00913423          	sd	s1,8(sp)
    80001034:	02010413          	addi	s0,sp,32
    80001038:	100024f3          	csrr	s1,sstatus
    8000103c:	100027f3          	csrr	a5,sstatus
    80001040:	ffd7f793          	andi	a5,a5,-3
    80001044:	10079073          	csrw	sstatus,a5
    80001048:	00001097          	auipc	ra,0x1
    8000104c:	680080e7          	jalr	1664(ra) # 0x800026c8
    80001050:	07852783          	lw	a5,120(a0)
    80001054:	02078663          	beqz	a5,0x80001080
    80001058:	00001097          	auipc	ra,0x1
    8000105c:	670080e7          	jalr	1648(ra) # 0x800026c8
    80001060:	07852783          	lw	a5,120(a0)
    80001064:	0017879b          	addiw	a5,a5,1
    80001068:	06f52c23          	sw	a5,120(a0)
    8000106c:	01813083          	ld	ra,24(sp)
    80001070:	01013403          	ld	s0,16(sp)
    80001074:	00813483          	ld	s1,8(sp)
    80001078:	02010113          	addi	sp,sp,32
    8000107c:	00008067          	ret
    80001080:	00001097          	auipc	ra,0x1
    80001084:	648080e7          	jalr	1608(ra) # 0x800026c8
    80001088:	0014d493          	srli	s1,s1,0x1
    8000108c:	0014f493          	andi	s1,s1,1
    80001090:	06952e23          	sw	s1,124(a0)
    80001094:	fc5ff06f          	j	0x80001058
    80001098:	fe010113          	addi	sp,sp,-32
    8000109c:	00113c23          	sd	ra,24(sp)
    800010a0:	00813823          	sd	s0,16(sp)
    800010a4:	00913423          	sd	s1,8(sp)
    800010a8:	02010413          	addi	s0,sp,32
    800010ac:	00050493          	mv	s1,a0
    800010b0:	00000097          	auipc	ra,0x0
    800010b4:	f74080e7          	jalr	-140(ra) # 0x80001024
    800010b8:	00048513          	mv	a0,s1
    800010bc:	00000097          	auipc	ra,0x0
    800010c0:	f1c080e7          	jalr	-228(ra) # 0x80000fd8
    800010c4:	00100713          	li	a4,1
    800010c8:	02051c63          	bnez	a0,0x80001100
    800010cc:	00070793          	mv	a5,a4
    800010d0:	0cf4a7af          	amoswap.w.aq	a5,a5,(s1)
    800010d4:	0007879b          	sext.w	a5,a5
    800010d8:	fe079ae3          	bnez	a5,0x800010cc
    800010dc:	0ff0000f          	fence
    800010e0:	00001097          	auipc	ra,0x1
    800010e4:	5e8080e7          	jalr	1512(ra) # 0x800026c8
    800010e8:	00a4b823          	sd	a0,16(s1)
    800010ec:	01813083          	ld	ra,24(sp)
    800010f0:	01013403          	ld	s0,16(sp)
    800010f4:	00813483          	ld	s1,8(sp)
    800010f8:	02010113          	addi	sp,sp,32
    800010fc:	00008067          	ret
    80001100:	00009517          	auipc	a0,0x9
    80001104:	f6850513          	addi	a0,a0,-152 # 0x8000a068
    80001108:	00000097          	auipc	ra,0x0
    8000110c:	978080e7          	jalr	-1672(ra) # 0x80000a80
    80001110:	ff010113          	addi	sp,sp,-16
    80001114:	00113423          	sd	ra,8(sp)
    80001118:	00813023          	sd	s0,0(sp)
    8000111c:	01010413          	addi	s0,sp,16
    80001120:	00001097          	auipc	ra,0x1
    80001124:	5a8080e7          	jalr	1448(ra) # 0x800026c8
    80001128:	100027f3          	csrr	a5,sstatus
    8000112c:	0027f793          	andi	a5,a5,2
    80001130:	04079063          	bnez	a5,0x80001170
    80001134:	07852783          	lw	a5,120(a0)
    80001138:	04f05463          	blez	a5,0x80001180
    8000113c:	fff7879b          	addiw	a5,a5,-1
    80001140:	0007871b          	sext.w	a4,a5
    80001144:	06f52c23          	sw	a5,120(a0)
    80001148:	00071c63          	bnez	a4,0x80001160
    8000114c:	07c52783          	lw	a5,124(a0)
    80001150:	00078863          	beqz	a5,0x80001160
    80001154:	100027f3          	csrr	a5,sstatus
    80001158:	0027e793          	ori	a5,a5,2
    8000115c:	10079073          	csrw	sstatus,a5
    80001160:	00813083          	ld	ra,8(sp)
    80001164:	00013403          	ld	s0,0(sp)
    80001168:	01010113          	addi	sp,sp,16
    8000116c:	00008067          	ret
    80001170:	00009517          	auipc	a0,0x9
    80001174:	f0050513          	addi	a0,a0,-256 # 0x8000a070
    80001178:	00000097          	auipc	ra,0x0
    8000117c:	908080e7          	jalr	-1784(ra) # 0x80000a80
    80001180:	00009517          	auipc	a0,0x9
    80001184:	f0850513          	addi	a0,a0,-248 # 0x8000a088
    80001188:	00000097          	auipc	ra,0x0
    8000118c:	8f8080e7          	jalr	-1800(ra) # 0x80000a80
    80001190:	fe010113          	addi	sp,sp,-32
    80001194:	00113c23          	sd	ra,24(sp)
    80001198:	00813823          	sd	s0,16(sp)
    8000119c:	00913423          	sd	s1,8(sp)
    800011a0:	02010413          	addi	s0,sp,32
    800011a4:	00050493          	mv	s1,a0
    800011a8:	00000097          	auipc	ra,0x0
    800011ac:	e30080e7          	jalr	-464(ra) # 0x80000fd8
    800011b0:	02050863          	beqz	a0,0x800011e0
    800011b4:	0004b823          	sd	zero,16(s1)
    800011b8:	0ff0000f          	fence
    800011bc:	0f50000f          	fence	iorw,ow
    800011c0:	0804a02f          	amoswap.w	zero,zero,(s1)
    800011c4:	00000097          	auipc	ra,0x0
    800011c8:	f4c080e7          	jalr	-180(ra) # 0x80001110
    800011cc:	01813083          	ld	ra,24(sp)
    800011d0:	01013403          	ld	s0,16(sp)
    800011d4:	00813483          	ld	s1,8(sp)
    800011d8:	02010113          	addi	sp,sp,32
    800011dc:	00008067          	ret
    800011e0:	00009517          	auipc	a0,0x9
    800011e4:	eb050513          	addi	a0,a0,-336 # 0x8000a090
    800011e8:	00000097          	auipc	ra,0x0
    800011ec:	898080e7          	jalr	-1896(ra) # 0x80000a80
    800011f0:	ff010113          	addi	sp,sp,-16
    800011f4:	00813423          	sd	s0,8(sp)
    800011f8:	01010413          	addi	s0,sp,16
    800011fc:	02060063          	beqz	a2,0x8000121c
    80001200:	00050793          	mv	a5,a0
    80001204:	02061613          	slli	a2,a2,0x20
    80001208:	02065613          	srli	a2,a2,0x20
    8000120c:	00a60733          	add	a4,a2,a0
    80001210:	00b78023          	sb	a1,0(a5)
    80001214:	00178793          	addi	a5,a5,1
    80001218:	fee79ce3          	bne	a5,a4,0x80001210
    8000121c:	00813403          	ld	s0,8(sp)
    80001220:	01010113          	addi	sp,sp,16
    80001224:	00008067          	ret
    80001228:	ff010113          	addi	sp,sp,-16
    8000122c:	00813423          	sd	s0,8(sp)
    80001230:	01010413          	addi	s0,sp,16
    80001234:	04060463          	beqz	a2,0x8000127c
    80001238:	fff6069b          	addiw	a3,a2,-1 # 0xfff
    8000123c:	02069693          	slli	a3,a3,0x20
    80001240:	0206d693          	srli	a3,a3,0x20
    80001244:	00168693          	addi	a3,a3,1
    80001248:	00d506b3          	add	a3,a0,a3
    8000124c:	00054783          	lbu	a5,0(a0)
    80001250:	0005c703          	lbu	a4,0(a1)
    80001254:	00e79c63          	bne	a5,a4,0x8000126c
    80001258:	00150513          	addi	a0,a0,1
    8000125c:	00158593          	addi	a1,a1,1
    80001260:	fed516e3          	bne	a0,a3,0x8000124c
    80001264:	00000513          	li	a0,0
    80001268:	0080006f          	j	0x80001270
    8000126c:	40e7853b          	subw	a0,a5,a4
    80001270:	00813403          	ld	s0,8(sp)
    80001274:	01010113          	addi	sp,sp,16
    80001278:	00008067          	ret
    8000127c:	00000513          	li	a0,0
    80001280:	ff1ff06f          	j	0x80001270
    80001284:	ff010113          	addi	sp,sp,-16
    80001288:	00813423          	sd	s0,8(sp)
    8000128c:	01010413          	addi	s0,sp,16
    80001290:	02060663          	beqz	a2,0x800012bc
    80001294:	02a5ea63          	bltu	a1,a0,0x800012c8
    80001298:	02061613          	slli	a2,a2,0x20
    8000129c:	02065613          	srli	a2,a2,0x20
    800012a0:	00c587b3          	add	a5,a1,a2
    800012a4:	00050713          	mv	a4,a0
    800012a8:	00158593          	addi	a1,a1,1
    800012ac:	00170713          	addi	a4,a4,1 # 0xfffffffffffff001
    800012b0:	fff5c683          	lbu	a3,-1(a1)
    800012b4:	fed70fa3          	sb	a3,-1(a4)
    800012b8:	fef598e3          	bne	a1,a5,0x800012a8
    800012bc:	00813403          	ld	s0,8(sp)
    800012c0:	01010113          	addi	sp,sp,16
    800012c4:	00008067          	ret
    800012c8:	02061693          	slli	a3,a2,0x20
    800012cc:	0206d693          	srli	a3,a3,0x20
    800012d0:	00d58733          	add	a4,a1,a3
    800012d4:	fce572e3          	bgeu	a0,a4,0x80001298
    800012d8:	00d506b3          	add	a3,a0,a3
    800012dc:	fff6079b          	addiw	a5,a2,-1
    800012e0:	02079793          	slli	a5,a5,0x20
    800012e4:	0207d793          	srli	a5,a5,0x20
    800012e8:	fff7c793          	not	a5,a5
    800012ec:	00f707b3          	add	a5,a4,a5
    800012f0:	fff70713          	addi	a4,a4,-1
    800012f4:	fff68693          	addi	a3,a3,-1
    800012f8:	00074603          	lbu	a2,0(a4)
    800012fc:	00c68023          	sb	a2,0(a3)
    80001300:	fee798e3          	bne	a5,a4,0x800012f0
    80001304:	fb9ff06f          	j	0x800012bc
    80001308:	ff010113          	addi	sp,sp,-16
    8000130c:	00113423          	sd	ra,8(sp)
    80001310:	00813023          	sd	s0,0(sp)
    80001314:	01010413          	addi	s0,sp,16
    80001318:	00000097          	auipc	ra,0x0
    8000131c:	f6c080e7          	jalr	-148(ra) # 0x80001284
    80001320:	00813083          	ld	ra,8(sp)
    80001324:	00013403          	ld	s0,0(sp)
    80001328:	01010113          	addi	sp,sp,16
    8000132c:	00008067          	ret
    80001330:	ff010113          	addi	sp,sp,-16
    80001334:	00813423          	sd	s0,8(sp)
    80001338:	01010413          	addi	s0,sp,16
    8000133c:	02060663          	beqz	a2,0x80001368
    80001340:	00054783          	lbu	a5,0(a0)
    80001344:	02078663          	beqz	a5,0x80001370
    80001348:	0005c703          	lbu	a4,0(a1)
    8000134c:	02f71263          	bne	a4,a5,0x80001370
    80001350:	fff6061b          	addiw	a2,a2,-1
    80001354:	00150513          	addi	a0,a0,1
    80001358:	00158593          	addi	a1,a1,1
    8000135c:	fe0612e3          	bnez	a2,0x80001340
    80001360:	00000513          	li	a0,0
    80001364:	01c0006f          	j	0x80001380
    80001368:	00000513          	li	a0,0
    8000136c:	0140006f          	j	0x80001380
    80001370:	00060e63          	beqz	a2,0x8000138c
    80001374:	00054503          	lbu	a0,0(a0)
    80001378:	0005c783          	lbu	a5,0(a1)
    8000137c:	40f5053b          	subw	a0,a0,a5
    80001380:	00813403          	ld	s0,8(sp)
    80001384:	01010113          	addi	sp,sp,16
    80001388:	00008067          	ret
    8000138c:	00000513          	li	a0,0
    80001390:	ff1ff06f          	j	0x80001380
    80001394:	ff010113          	addi	sp,sp,-16
    80001398:	00813423          	sd	s0,8(sp)
    8000139c:	01010413          	addi	s0,sp,16
    800013a0:	00050713          	mv	a4,a0
    800013a4:	00060813          	mv	a6,a2
    800013a8:	fff6061b          	addiw	a2,a2,-1
    800013ac:	01005c63          	blez	a6,0x800013c4
    800013b0:	00170713          	addi	a4,a4,1
    800013b4:	0005c783          	lbu	a5,0(a1)
    800013b8:	fef70fa3          	sb	a5,-1(a4)
    800013bc:	00158593          	addi	a1,a1,1
    800013c0:	fe0792e3          	bnez	a5,0x800013a4
    800013c4:	00070693          	mv	a3,a4
    800013c8:	00c05e63          	blez	a2,0x800013e4
    800013cc:	00168693          	addi	a3,a3,1
    800013d0:	fe068fa3          	sb	zero,-1(a3)
    800013d4:	40d707bb          	subw	a5,a4,a3
    800013d8:	fff7879b          	addiw	a5,a5,-1
    800013dc:	010787bb          	addw	a5,a5,a6
    800013e0:	fef046e3          	bgtz	a5,0x800013cc
    800013e4:	00813403          	ld	s0,8(sp)
    800013e8:	01010113          	addi	sp,sp,16
    800013ec:	00008067          	ret
    800013f0:	ff010113          	addi	sp,sp,-16
    800013f4:	00813423          	sd	s0,8(sp)
    800013f8:	01010413          	addi	s0,sp,16
    800013fc:	02c05a63          	blez	a2,0x80001430
    80001400:	fff6069b          	addiw	a3,a2,-1
    80001404:	02069693          	slli	a3,a3,0x20
    80001408:	0206d693          	srli	a3,a3,0x20
    8000140c:	00d586b3          	add	a3,a1,a3
    80001410:	00050793          	mv	a5,a0
    80001414:	00d58c63          	beq	a1,a3,0x8000142c
    80001418:	00158593          	addi	a1,a1,1
    8000141c:	00178793          	addi	a5,a5,1
    80001420:	fff5c703          	lbu	a4,-1(a1)
    80001424:	fee78fa3          	sb	a4,-1(a5)
    80001428:	fe0716e3          	bnez	a4,0x80001414
    8000142c:	00078023          	sb	zero,0(a5)
    80001430:	00813403          	ld	s0,8(sp)
    80001434:	01010113          	addi	sp,sp,16
    80001438:	00008067          	ret
    8000143c:	ff010113          	addi	sp,sp,-16
    80001440:	00813423          	sd	s0,8(sp)
    80001444:	01010413          	addi	s0,sp,16
    80001448:	00054783          	lbu	a5,0(a0)
    8000144c:	02078863          	beqz	a5,0x8000147c
    80001450:	00150513          	addi	a0,a0,1
    80001454:	00050793          	mv	a5,a0
    80001458:	00100693          	li	a3,1
    8000145c:	40a686bb          	subw	a3,a3,a0
    80001460:	00f6853b          	addw	a0,a3,a5
    80001464:	00178793          	addi	a5,a5,1
    80001468:	fff7c703          	lbu	a4,-1(a5)
    8000146c:	fe071ae3          	bnez	a4,0x80001460
    80001470:	00813403          	ld	s0,8(sp)
    80001474:	01010113          	addi	sp,sp,16
    80001478:	00008067          	ret
    8000147c:	00000513          	li	a0,0
    80001480:	ff1ff06f          	j	0x80001470
    80001484:	ff010113          	addi	sp,sp,-16
    80001488:	00113423          	sd	ra,8(sp)
    8000148c:	00813023          	sd	s0,0(sp)
    80001490:	01010413          	addi	s0,sp,16
    80001494:	00001097          	auipc	ra,0x1
    80001498:	214080e7          	jalr	532(ra) # 0x800026a8
    8000149c:	00009717          	auipc	a4,0x9
    800014a0:	50470713          	addi	a4,a4,1284 # 0x8000a9a0
    800014a4:	04050863          	beqz	a0,0x800014f4
    800014a8:	00072783          	lw	a5,0(a4)
    800014ac:	0007879b          	sext.w	a5,a5
    800014b0:	fe078ce3          	beqz	a5,0x800014a8
    800014b4:	0ff0000f          	fence
    800014b8:	00001097          	auipc	ra,0x1
    800014bc:	1f0080e7          	jalr	496(ra) # 0x800026a8
    800014c0:	00050593          	mv	a1,a0
    800014c4:	00009517          	auipc	a0,0x9
    800014c8:	d3c50513          	addi	a0,a0,-708 # 0x8000a200
    800014cc:	fffff097          	auipc	ra,0xfffff
    800014d0:	1dc080e7          	jalr	476(ra) # 0x800006a8
    800014d4:	00000097          	auipc	ra,0x0
    800014d8:	1dc080e7          	jalr	476(ra) # 0x800016b0
    800014dc:	00002097          	auipc	ra,0x2
    800014e0:	42c080e7          	jalr	1068(ra) # 0x80003908
    800014e4:	00007097          	auipc	ra,0x7
    800014e8:	eb4080e7          	jalr	-332(ra) # 0x80008398
    800014ec:	00002097          	auipc	ra,0x2
    800014f0:	950080e7          	jalr	-1712(ra) # 0x80002e3c
    800014f4:	fffff097          	auipc	ra,0xfffff
    800014f8:	084080e7          	jalr	132(ra) # 0x80000578
    800014fc:	fffff097          	auipc	ra,0xfffff
    80001500:	5dc080e7          	jalr	1500(ra) # 0x80000ad8
    80001504:	00009517          	auipc	a0,0x9
    80001508:	d0c50513          	addi	a0,a0,-756 # 0x8000a210
    8000150c:	fffff097          	auipc	ra,0xfffff
    80001510:	19c080e7          	jalr	412(ra) # 0x800006a8
    80001514:	00009517          	auipc	a0,0x9
    80001518:	b8450513          	addi	a0,a0,-1148 # 0x8000a098
    8000151c:	fffff097          	auipc	ra,0xfffff
    80001520:	18c080e7          	jalr	396(ra) # 0x800006a8
    80001524:	00009517          	auipc	a0,0x9
    80001528:	cec50513          	addi	a0,a0,-788 # 0x8000a210
    8000152c:	fffff097          	auipc	ra,0xfffff
    80001530:	17c080e7          	jalr	380(ra) # 0x800006a8
    80001534:	00009517          	auipc	a0,0x9
    80001538:	b7c50513          	addi	a0,a0,-1156 # 0x8000a0b0
    8000153c:	fffff097          	auipc	ra,0xfffff
    80001540:	16c080e7          	jalr	364(ra) # 0x800006a8
    80001544:	00000097          	auipc	ra,0x0
    80001548:	998080e7          	jalr	-1640(ra) # 0x80000edc
    8000154c:	00009517          	auipc	a0,0x9
    80001550:	b7450513          	addi	a0,a0,-1164 # 0x8000a0c0
    80001554:	fffff097          	auipc	ra,0xfffff
    80001558:	154080e7          	jalr	340(ra) # 0x800006a8
    8000155c:	00009517          	auipc	a0,0x9
    80001560:	b7450513          	addi	a0,a0,-1164 # 0x8000a0d0
    80001564:	fffff097          	auipc	ra,0xfffff
    80001568:	144080e7          	jalr	324(ra) # 0x800006a8
    8000156c:	00000097          	auipc	ra,0x0
    80001570:	578080e7          	jalr	1400(ra) # 0x80001ae4
    80001574:	00009517          	auipc	a0,0x9
    80001578:	b5c50513          	addi	a0,a0,-1188 # 0x8000a0d0
    8000157c:	fffff097          	auipc	ra,0xfffff
    80001580:	12c080e7          	jalr	300(ra) # 0x800006a8
    80001584:	00009517          	auipc	a0,0x9
    80001588:	b5c50513          	addi	a0,a0,-1188 # 0x8000a0e0
    8000158c:	fffff097          	auipc	ra,0xfffff
    80001590:	11c080e7          	jalr	284(ra) # 0x800006a8
    80001594:	00000097          	auipc	ra,0x0
    80001598:	11c080e7          	jalr	284(ra) # 0x800016b0
    8000159c:	00009517          	auipc	a0,0x9
    800015a0:	b5c50513          	addi	a0,a0,-1188 # 0x8000a0f8
    800015a4:	fffff097          	auipc	ra,0xfffff
    800015a8:	104080e7          	jalr	260(ra) # 0x800006a8
    800015ac:	00001097          	auipc	ra,0x1
    800015b0:	010080e7          	jalr	16(ra) # 0x800025bc
    800015b4:	00009517          	auipc	a0,0x9
    800015b8:	b5c50513          	addi	a0,a0,-1188 # 0x8000a110
    800015bc:	fffff097          	auipc	ra,0xfffff
    800015c0:	0ec080e7          	jalr	236(ra) # 0x800006a8
    800015c4:	00002097          	auipc	ra,0x2
    800015c8:	30c080e7          	jalr	780(ra) # 0x800038d0
    800015cc:	00009517          	auipc	a0,0x9
    800015d0:	b5c50513          	addi	a0,a0,-1188 # 0x8000a128
    800015d4:	fffff097          	auipc	ra,0xfffff
    800015d8:	0d4080e7          	jalr	212(ra) # 0x800006a8
    800015dc:	00002097          	auipc	ra,0x2
    800015e0:	32c080e7          	jalr	812(ra) # 0x80003908
    800015e4:	00009517          	auipc	a0,0x9
    800015e8:	b5c50513          	addi	a0,a0,-1188 # 0x8000a140
    800015ec:	fffff097          	auipc	ra,0xfffff
    800015f0:	0bc080e7          	jalr	188(ra) # 0x800006a8
    800015f4:	00007097          	auipc	ra,0x7
    800015f8:	d7c080e7          	jalr	-644(ra) # 0x80008370
    800015fc:	00009517          	auipc	a0,0x9
    80001600:	b5c50513          	addi	a0,a0,-1188 # 0x8000a158
    80001604:	fffff097          	auipc	ra,0xfffff
    80001608:	0a4080e7          	jalr	164(ra) # 0x800006a8
    8000160c:	00007097          	auipc	ra,0x7
    80001610:	d8c080e7          	jalr	-628(ra) # 0x80008398
    80001614:	00009517          	auipc	a0,0x9
    80001618:	b5c50513          	addi	a0,a0,-1188 # 0x8000a170
    8000161c:	fffff097          	auipc	ra,0xfffff
    80001620:	08c080e7          	jalr	140(ra) # 0x800006a8
    80001624:	00003097          	auipc	ra,0x3
    80001628:	d80080e7          	jalr	-640(ra) # 0x800043a4
    8000162c:	00009517          	auipc	a0,0x9
    80001630:	b5450513          	addi	a0,a0,-1196 # 0x8000a180
    80001634:	fffff097          	auipc	ra,0xfffff
    80001638:	074080e7          	jalr	116(ra) # 0x800006a8
    8000163c:	00003097          	auipc	ra,0x3
    80001640:	5ac080e7          	jalr	1452(ra) # 0x80004be8
    80001644:	00009517          	auipc	a0,0x9
    80001648:	b4c50513          	addi	a0,a0,-1204 # 0x8000a190
    8000164c:	fffff097          	auipc	ra,0xfffff
    80001650:	05c080e7          	jalr	92(ra) # 0x800006a8
    80001654:	00005097          	auipc	ra,0x5
    80001658:	d9c080e7          	jalr	-612(ra) # 0x800063f0
    8000165c:	00009517          	auipc	a0,0x9
    80001660:	b4c50513          	addi	a0,a0,-1204 # 0x8000a1a8
    80001664:	fffff097          	auipc	ra,0xfffff
    80001668:	044080e7          	jalr	68(ra) # 0x800006a8
    8000166c:	00007097          	auipc	ra,0x7
    80001670:	e98080e7          	jalr	-360(ra) # 0x80008504
    80001674:	00009517          	auipc	a0,0x9
    80001678:	b5450513          	addi	a0,a0,-1196 # 0x8000a1c8
    8000167c:	fffff097          	auipc	ra,0xfffff
    80001680:	02c080e7          	jalr	44(ra) # 0x800006a8
    80001684:	00001097          	auipc	ra,0x1
    80001688:	524080e7          	jalr	1316(ra) # 0x80002ba8
    8000168c:	00009517          	auipc	a0,0x9
    80001690:	b5450513          	addi	a0,a0,-1196 # 0x8000a1e0
    80001694:	fffff097          	auipc	ra,0xfffff
    80001698:	014080e7          	jalr	20(ra) # 0x800006a8
    8000169c:	0ff0000f          	fence
    800016a0:	00100793          	li	a5,1
    800016a4:	00009717          	auipc	a4,0x9
    800016a8:	2ef72e23          	sw	a5,764(a4) # 0x8000a9a0
    800016ac:	e41ff06f          	j	0x800014ec
    800016b0:	ff010113          	addi	sp,sp,-16
    800016b4:	00813423          	sd	s0,8(sp)
    800016b8:	01010413          	addi	s0,sp,16
    800016bc:	12000073          	sfence.vma
    800016c0:	00009797          	auipc	a5,0x9
    800016c4:	2e87b783          	ld	a5,744(a5) # 0x8000a9a8
    800016c8:	00c7d793          	srli	a5,a5,0xc
    800016cc:	fff00713          	li	a4,-1
    800016d0:	03f71713          	slli	a4,a4,0x3f
    800016d4:	00e7e7b3          	or	a5,a5,a4
    800016d8:	18079073          	csrw	satp,a5
    800016dc:	12000073          	sfence.vma
    800016e0:	00813403          	ld	s0,8(sp)
    800016e4:	01010113          	addi	sp,sp,16
    800016e8:	00008067          	ret
    800016ec:	fc010113          	addi	sp,sp,-64
    800016f0:	02113c23          	sd	ra,56(sp)
    800016f4:	02813823          	sd	s0,48(sp)
    800016f8:	02913423          	sd	s1,40(sp)
    800016fc:	03213023          	sd	s2,32(sp)
    80001700:	01313c23          	sd	s3,24(sp)
    80001704:	01413823          	sd	s4,16(sp)
    80001708:	01513423          	sd	s5,8(sp)
    8000170c:	01613023          	sd	s6,0(sp)
    80001710:	04010413          	addi	s0,sp,64
    80001714:	00050493          	mv	s1,a0
    80001718:	00058993          	mv	s3,a1
    8000171c:	00060a93          	mv	s5,a2
    80001720:	fff00793          	li	a5,-1
    80001724:	01a7d793          	srli	a5,a5,0x1a
    80001728:	01e00a13          	li	s4,30
    8000172c:	00c00b13          	li	s6,12
    80001730:	04b7f863          	bgeu	a5,a1,0x80001780
    80001734:	00009517          	auipc	a0,0x9
    80001738:	ae450513          	addi	a0,a0,-1308 # 0x8000a218
    8000173c:	fffff097          	auipc	ra,0xfffff
    80001740:	344080e7          	jalr	836(ra) # 0x80000a80
    80001744:	080a8e63          	beqz	s5,0x800017e0
    80001748:	fffff097          	auipc	ra,0xfffff
    8000174c:	7e4080e7          	jalr	2020(ra) # 0x80000f2c
    80001750:	00050493          	mv	s1,a0
    80001754:	06050263          	beqz	a0,0x800017b8
    80001758:	00001637          	lui	a2,0x1
    8000175c:	00000593          	li	a1,0
    80001760:	00000097          	auipc	ra,0x0
    80001764:	a90080e7          	jalr	-1392(ra) # 0x800011f0
    80001768:	00c4d793          	srli	a5,s1,0xc
    8000176c:	00a79793          	slli	a5,a5,0xa
    80001770:	0017e793          	ori	a5,a5,1
    80001774:	00f93023          	sd	a5,0(s2)
    80001778:	ff7a0a1b          	addiw	s4,s4,-9 # 0xffffffffffffeff7
    8000177c:	036a0663          	beq	s4,s6,0x800017a8
    80001780:	0149d933          	srl	s2,s3,s4
    80001784:	1ff97913          	andi	s2,s2,511
    80001788:	00391913          	slli	s2,s2,0x3
    8000178c:	01248933          	add	s2,s1,s2
    80001790:	00093483          	ld	s1,0(s2)
    80001794:	0014f793          	andi	a5,s1,1
    80001798:	fa0786e3          	beqz	a5,0x80001744
    8000179c:	00a4d493          	srli	s1,s1,0xa
    800017a0:	00c49493          	slli	s1,s1,0xc
    800017a4:	fd5ff06f          	j	0x80001778
    800017a8:	00c9d513          	srli	a0,s3,0xc
    800017ac:	1ff57513          	andi	a0,a0,511
    800017b0:	00351513          	slli	a0,a0,0x3
    800017b4:	00a48533          	add	a0,s1,a0
    800017b8:	03813083          	ld	ra,56(sp)
    800017bc:	03013403          	ld	s0,48(sp)
    800017c0:	02813483          	ld	s1,40(sp)
    800017c4:	02013903          	ld	s2,32(sp)
    800017c8:	01813983          	ld	s3,24(sp)
    800017cc:	01013a03          	ld	s4,16(sp)
    800017d0:	00813a83          	ld	s5,8(sp)
    800017d4:	00013b03          	ld	s6,0(sp)
    800017d8:	04010113          	addi	sp,sp,64
    800017dc:	00008067          	ret
    800017e0:	00000513          	li	a0,0
    800017e4:	fd5ff06f          	j	0x800017b8
    800017e8:	fff00793          	li	a5,-1
    800017ec:	01a7d793          	srli	a5,a5,0x1a
    800017f0:	00b7f663          	bgeu	a5,a1,0x800017fc
    800017f4:	00000513          	li	a0,0
    800017f8:	00008067          	ret
    800017fc:	ff010113          	addi	sp,sp,-16
    80001800:	00113423          	sd	ra,8(sp)
    80001804:	00813023          	sd	s0,0(sp)
    80001808:	01010413          	addi	s0,sp,16
    8000180c:	00000613          	li	a2,0
    80001810:	00000097          	auipc	ra,0x0
    80001814:	edc080e7          	jalr	-292(ra) # 0x800016ec
    80001818:	02050a63          	beqz	a0,0x8000184c
    8000181c:	00053783          	ld	a5,0(a0)
    80001820:	0117f693          	andi	a3,a5,17
    80001824:	01100713          	li	a4,17
    80001828:	00000513          	li	a0,0
    8000182c:	00e68a63          	beq	a3,a4,0x80001840
    80001830:	00813083          	ld	ra,8(sp)
    80001834:	00013403          	ld	s0,0(sp)
    80001838:	01010113          	addi	sp,sp,16
    8000183c:	00008067          	ret
    80001840:	00a7d793          	srli	a5,a5,0xa
    80001844:	00c79513          	slli	a0,a5,0xc
    80001848:	fe9ff06f          	j	0x80001830
    8000184c:	00000513          	li	a0,0
    80001850:	fe1ff06f          	j	0x80001830
    80001854:	fb010113          	addi	sp,sp,-80
    80001858:	04113423          	sd	ra,72(sp)
    8000185c:	04813023          	sd	s0,64(sp)
    80001860:	02913c23          	sd	s1,56(sp)
    80001864:	03213823          	sd	s2,48(sp)
    80001868:	03313423          	sd	s3,40(sp)
    8000186c:	03413023          	sd	s4,32(sp)
    80001870:	01513c23          	sd	s5,24(sp)
    80001874:	01613823          	sd	s6,16(sp)
    80001878:	01713423          	sd	s7,8(sp)
    8000187c:	05010413          	addi	s0,sp,80
    80001880:	03459793          	slli	a5,a1,0x34
    80001884:	06079c63          	bnez	a5,0x800018fc
    80001888:	00050a93          	mv	s5,a0
    8000188c:	00070b13          	mv	s6,a4
    80001890:	03461793          	slli	a5,a2,0x34
    80001894:	06079c63          	bnez	a5,0x8000190c
    80001898:	08060263          	beqz	a2,0x8000191c
    8000189c:	fffff7b7          	lui	a5,0xfffff
    800018a0:	00f60633          	add	a2,a2,a5
    800018a4:	00b609b3          	add	s3,a2,a1
    800018a8:	00058913          	mv	s2,a1
    800018ac:	40b68a33          	sub	s4,a3,a1
    800018b0:	00001bb7          	lui	s7,0x1
    800018b4:	012a04b3          	add	s1,s4,s2
    800018b8:	00100613          	li	a2,1
    800018bc:	00090593          	mv	a1,s2
    800018c0:	000a8513          	mv	a0,s5
    800018c4:	00000097          	auipc	ra,0x0
    800018c8:	e28080e7          	jalr	-472(ra) # 0x800016ec
    800018cc:	06050863          	beqz	a0,0x8000193c
    800018d0:	00053783          	ld	a5,0(a0)
    800018d4:	0017f793          	andi	a5,a5,1
    800018d8:	04079a63          	bnez	a5,0x8000192c
    800018dc:	00c4d493          	srli	s1,s1,0xc
    800018e0:	00a49493          	slli	s1,s1,0xa
    800018e4:	0164e4b3          	or	s1,s1,s6
    800018e8:	0014e493          	ori	s1,s1,1
    800018ec:	00953023          	sd	s1,0(a0)
    800018f0:	07390e63          	beq	s2,s3,0x8000196c
    800018f4:	01790933          	add	s2,s2,s7
    800018f8:	fbdff06f          	j	0x800018b4
    800018fc:	00009517          	auipc	a0,0x9
    80001900:	92450513          	addi	a0,a0,-1756 # 0x8000a220
    80001904:	fffff097          	auipc	ra,0xfffff
    80001908:	17c080e7          	jalr	380(ra) # 0x80000a80
    8000190c:	00009517          	auipc	a0,0x9
    80001910:	93450513          	addi	a0,a0,-1740 # 0x8000a240
    80001914:	fffff097          	auipc	ra,0xfffff
    80001918:	16c080e7          	jalr	364(ra) # 0x80000a80
    8000191c:	00009517          	auipc	a0,0x9
    80001920:	94450513          	addi	a0,a0,-1724 # 0x8000a260
    80001924:	fffff097          	auipc	ra,0xfffff
    80001928:	15c080e7          	jalr	348(ra) # 0x80000a80
    8000192c:	00009517          	auipc	a0,0x9
    80001930:	94450513          	addi	a0,a0,-1724 # 0x8000a270
    80001934:	fffff097          	auipc	ra,0xfffff
    80001938:	14c080e7          	jalr	332(ra) # 0x80000a80
    8000193c:	fff00513          	li	a0,-1
    80001940:	04813083          	ld	ra,72(sp)
    80001944:	04013403          	ld	s0,64(sp)
    80001948:	03813483          	ld	s1,56(sp)
    8000194c:	03013903          	ld	s2,48(sp)
    80001950:	02813983          	ld	s3,40(sp)
    80001954:	02013a03          	ld	s4,32(sp)
    80001958:	01813a83          	ld	s5,24(sp)
    8000195c:	01013b03          	ld	s6,16(sp)
    80001960:	00813b83          	ld	s7,8(sp)
    80001964:	05010113          	addi	sp,sp,80
    80001968:	00008067          	ret
    8000196c:	00000513          	li	a0,0
    80001970:	fd1ff06f          	j	0x80001940
    80001974:	ff010113          	addi	sp,sp,-16
    80001978:	00113423          	sd	ra,8(sp)
    8000197c:	00813023          	sd	s0,0(sp)
    80001980:	01010413          	addi	s0,sp,16
    80001984:	00068793          	mv	a5,a3
    80001988:	00060693          	mv	a3,a2
    8000198c:	00078613          	mv	a2,a5
    80001990:	00000097          	auipc	ra,0x0
    80001994:	ec4080e7          	jalr	-316(ra) # 0x80001854
    80001998:	00051a63          	bnez	a0,0x800019ac
    8000199c:	00813083          	ld	ra,8(sp)
    800019a0:	00013403          	ld	s0,0(sp)
    800019a4:	01010113          	addi	sp,sp,16
    800019a8:	00008067          	ret
    800019ac:	00009517          	auipc	a0,0x9
    800019b0:	8d450513          	addi	a0,a0,-1836 # 0x8000a280
    800019b4:	fffff097          	auipc	ra,0xfffff
    800019b8:	0cc080e7          	jalr	204(ra) # 0x80000a80
    800019bc:	fe010113          	addi	sp,sp,-32
    800019c0:	00113c23          	sd	ra,24(sp)
    800019c4:	00813823          	sd	s0,16(sp)
    800019c8:	00913423          	sd	s1,8(sp)
    800019cc:	01213023          	sd	s2,0(sp)
    800019d0:	02010413          	addi	s0,sp,32
    800019d4:	fffff097          	auipc	ra,0xfffff
    800019d8:	558080e7          	jalr	1368(ra) # 0x80000f2c
    800019dc:	00050493          	mv	s1,a0
    800019e0:	00001637          	lui	a2,0x1
    800019e4:	00000593          	li	a1,0
    800019e8:	00000097          	auipc	ra,0x0
    800019ec:	808080e7          	jalr	-2040(ra) # 0x800011f0
    800019f0:	00600713          	li	a4,6
    800019f4:	000016b7          	lui	a3,0x1
    800019f8:	10000637          	lui	a2,0x10000
    800019fc:	100005b7          	lui	a1,0x10000
    80001a00:	00048513          	mv	a0,s1
    80001a04:	00000097          	auipc	ra,0x0
    80001a08:	f70080e7          	jalr	-144(ra) # 0x80001974
    80001a0c:	00600713          	li	a4,6
    80001a10:	000016b7          	lui	a3,0x1
    80001a14:	10001637          	lui	a2,0x10001
    80001a18:	100015b7          	lui	a1,0x10001
    80001a1c:	00048513          	mv	a0,s1
    80001a20:	00000097          	auipc	ra,0x0
    80001a24:	f54080e7          	jalr	-172(ra) # 0x80001974
    80001a28:	00600713          	li	a4,6
    80001a2c:	040006b7          	lui	a3,0x4000
    80001a30:	0c000637          	lui	a2,0xc000
    80001a34:	0c0005b7          	lui	a1,0xc000
    80001a38:	00048513          	mv	a0,s1
    80001a3c:	00000097          	auipc	ra,0x0
    80001a40:	f38080e7          	jalr	-200(ra) # 0x80001974
    80001a44:	00008917          	auipc	s2,0x8
    80001a48:	5bc90913          	addi	s2,s2,1468 # 0x8000a000
    80001a4c:	00a00713          	li	a4,10
    80001a50:	80008697          	auipc	a3,0x80008
    80001a54:	5b068693          	addi	a3,a3,1456 # 0xa000
    80001a58:	00100613          	li	a2,1
    80001a5c:	01f61613          	slli	a2,a2,0x1f
    80001a60:	00060593          	mv	a1,a2
    80001a64:	00048513          	mv	a0,s1
    80001a68:	00000097          	auipc	ra,0x0
    80001a6c:	f0c080e7          	jalr	-244(ra) # 0x80001974
    80001a70:	00600713          	li	a4,6
    80001a74:	01100693          	li	a3,17
    80001a78:	01b69693          	slli	a3,a3,0x1b
    80001a7c:	412686b3          	sub	a3,a3,s2
    80001a80:	00090613          	mv	a2,s2
    80001a84:	00090593          	mv	a1,s2
    80001a88:	00048513          	mv	a0,s1
    80001a8c:	00000097          	auipc	ra,0x0
    80001a90:	ee8080e7          	jalr	-280(ra) # 0x80001974
    80001a94:	00a00713          	li	a4,10
    80001a98:	000016b7          	lui	a3,0x1
    80001a9c:	00007617          	auipc	a2,0x7
    80001aa0:	56460613          	addi	a2,a2,1380 # 0x80009000
    80001aa4:	040005b7          	lui	a1,0x4000
    80001aa8:	fff58593          	addi	a1,a1,-1 # 0x3ffffff
    80001aac:	00c59593          	slli	a1,a1,0xc
    80001ab0:	00048513          	mv	a0,s1
    80001ab4:	00000097          	auipc	ra,0x0
    80001ab8:	ec0080e7          	jalr	-320(ra) # 0x80001974
    80001abc:	00048513          	mv	a0,s1
    80001ac0:	00001097          	auipc	ra,0x1
    80001ac4:	a28080e7          	jalr	-1496(ra) # 0x800024e8
    80001ac8:	00048513          	mv	a0,s1
    80001acc:	01813083          	ld	ra,24(sp)
    80001ad0:	01013403          	ld	s0,16(sp)
    80001ad4:	00813483          	ld	s1,8(sp)
    80001ad8:	00013903          	ld	s2,0(sp)
    80001adc:	02010113          	addi	sp,sp,32
    80001ae0:	00008067          	ret
    80001ae4:	ff010113          	addi	sp,sp,-16
    80001ae8:	00113423          	sd	ra,8(sp)
    80001aec:	00813023          	sd	s0,0(sp)
    80001af0:	01010413          	addi	s0,sp,16
    80001af4:	00008517          	auipc	a0,0x8
    80001af8:	79450513          	addi	a0,a0,1940 # 0x8000a288
    80001afc:	fffff097          	auipc	ra,0xfffff
    80001b00:	bac080e7          	jalr	-1108(ra) # 0x800006a8
    80001b04:	00000097          	auipc	ra,0x0
    80001b08:	eb8080e7          	jalr	-328(ra) # 0x800019bc
    80001b0c:	00009797          	auipc	a5,0x9
    80001b10:	e8a7be23          	sd	a0,-356(a5) # 0x8000a9a8
    80001b14:	00813083          	ld	ra,8(sp)
    80001b18:	00013403          	ld	s0,0(sp)
    80001b1c:	01010113          	addi	sp,sp,16
    80001b20:	00008067          	ret
    80001b24:	fe010113          	addi	sp,sp,-32
    80001b28:	00113c23          	sd	ra,24(sp)
    80001b2c:	00813823          	sd	s0,16(sp)
    80001b30:	00913423          	sd	s1,8(sp)
    80001b34:	02010413          	addi	s0,sp,32
    80001b38:	fffff097          	auipc	ra,0xfffff
    80001b3c:	3f4080e7          	jalr	1012(ra) # 0x80000f2c
    80001b40:	00050493          	mv	s1,a0
    80001b44:	00050a63          	beqz	a0,0x80001b58
    80001b48:	00001637          	lui	a2,0x1
    80001b4c:	00000593          	li	a1,0
    80001b50:	fffff097          	auipc	ra,0xfffff
    80001b54:	6a0080e7          	jalr	1696(ra) # 0x800011f0
    80001b58:	00048513          	mv	a0,s1
    80001b5c:	01813083          	ld	ra,24(sp)
    80001b60:	01013403          	ld	s0,16(sp)
    80001b64:	00813483          	ld	s1,8(sp)
    80001b68:	02010113          	addi	sp,sp,32
    80001b6c:	00008067          	ret
    80001b70:	fc010113          	addi	sp,sp,-64
    80001b74:	02113c23          	sd	ra,56(sp)
    80001b78:	02813823          	sd	s0,48(sp)
    80001b7c:	02913423          	sd	s1,40(sp)
    80001b80:	03213023          	sd	s2,32(sp)
    80001b84:	01313c23          	sd	s3,24(sp)
    80001b88:	01413823          	sd	s4,16(sp)
    80001b8c:	01513423          	sd	s5,8(sp)
    80001b90:	01613023          	sd	s6,0(sp)
    80001b94:	04010413          	addi	s0,sp,64
    80001b98:	03459793          	slli	a5,a1,0x34
    80001b9c:	04079463          	bnez	a5,0x80001be4
    80001ba0:	00050a13          	mv	s4,a0
    80001ba4:	00058913          	mv	s2,a1
    80001ba8:	00068a93          	mv	s5,a3
    80001bac:	00c61613          	slli	a2,a2,0xc
    80001bb0:	00b609b3          	add	s3,a2,a1
    80001bb4:	00001b37          	lui	s6,0x1
    80001bb8:	0535e463          	bltu	a1,s3,0x80001c00
    80001bbc:	03813083          	ld	ra,56(sp)
    80001bc0:	03013403          	ld	s0,48(sp)
    80001bc4:	02813483          	ld	s1,40(sp)
    80001bc8:	02013903          	ld	s2,32(sp)
    80001bcc:	01813983          	ld	s3,24(sp)
    80001bd0:	01013a03          	ld	s4,16(sp)
    80001bd4:	00813a83          	ld	s5,8(sp)
    80001bd8:	00013b03          	ld	s6,0(sp)
    80001bdc:	04010113          	addi	sp,sp,64
    80001be0:	00008067          	ret
    80001be4:	00008517          	auipc	a0,0x8
    80001be8:	6b450513          	addi	a0,a0,1716 # 0x8000a298
    80001bec:	fffff097          	auipc	ra,0xfffff
    80001bf0:	e94080e7          	jalr	-364(ra) # 0x80000a80
    80001bf4:	0004b023          	sd	zero,0(s1)
    80001bf8:	01690933          	add	s2,s2,s6
    80001bfc:	fd3970e3          	bgeu	s2,s3,0x80001bbc
    80001c00:	00000613          	li	a2,0
    80001c04:	00090593          	mv	a1,s2
    80001c08:	000a0513          	mv	a0,s4
    80001c0c:	00000097          	auipc	ra,0x0
    80001c10:	ae0080e7          	jalr	-1312(ra) # 0x800016ec
    80001c14:	00050493          	mv	s1,a0
    80001c18:	fe0500e3          	beqz	a0,0x80001bf8
    80001c1c:	00053783          	ld	a5,0(a0)
    80001c20:	0017f713          	andi	a4,a5,1
    80001c24:	fc070ae3          	beqz	a4,0x80001bf8
    80001c28:	fc0a86e3          	beqz	s5,0x80001bf4
    80001c2c:	00a7d793          	srli	a5,a5,0xa
    80001c30:	00c79513          	slli	a0,a5,0xc
    80001c34:	fffff097          	auipc	ra,0xfffff
    80001c38:	18c080e7          	jalr	396(ra) # 0x80000dc0
    80001c3c:	fb9ff06f          	j	0x80001bf4
    80001c40:	fe010113          	addi	sp,sp,-32
    80001c44:	00113c23          	sd	ra,24(sp)
    80001c48:	00813823          	sd	s0,16(sp)
    80001c4c:	00913423          	sd	s1,8(sp)
    80001c50:	02010413          	addi	s0,sp,32
    80001c54:	00058493          	mv	s1,a1
    80001c58:	02b67463          	bgeu	a2,a1,0x80001c80
    80001c5c:	00060493          	mv	s1,a2
    80001c60:	000017b7          	lui	a5,0x1
    80001c64:	fff78793          	addi	a5,a5,-1 # 0xfff
    80001c68:	00f60733          	add	a4,a2,a5
    80001c6c:	fffff6b7          	lui	a3,0xfffff
    80001c70:	00d77733          	and	a4,a4,a3
    80001c74:	00f587b3          	add	a5,a1,a5
    80001c78:	00d7f7b3          	and	a5,a5,a3
    80001c7c:	00f76e63          	bltu	a4,a5,0x80001c98
    80001c80:	00048513          	mv	a0,s1
    80001c84:	01813083          	ld	ra,24(sp)
    80001c88:	01013403          	ld	s0,16(sp)
    80001c8c:	00813483          	ld	s1,8(sp)
    80001c90:	02010113          	addi	sp,sp,32
    80001c94:	00008067          	ret
    80001c98:	40e787b3          	sub	a5,a5,a4
    80001c9c:	00c7d793          	srli	a5,a5,0xc
    80001ca0:	00100693          	li	a3,1
    80001ca4:	0007861b          	sext.w	a2,a5
    80001ca8:	00070593          	mv	a1,a4
    80001cac:	00000097          	auipc	ra,0x0
    80001cb0:	ec4080e7          	jalr	-316(ra) # 0x80001b70
    80001cb4:	fcdff06f          	j	0x80001c80
    80001cb8:	10b66863          	bltu	a2,a1,0x80001dc8
    80001cbc:	fc010113          	addi	sp,sp,-64
    80001cc0:	02113c23          	sd	ra,56(sp)
    80001cc4:	02813823          	sd	s0,48(sp)
    80001cc8:	02913423          	sd	s1,40(sp)
    80001ccc:	03213023          	sd	s2,32(sp)
    80001cd0:	01313c23          	sd	s3,24(sp)
    80001cd4:	01413823          	sd	s4,16(sp)
    80001cd8:	01513423          	sd	s5,8(sp)
    80001cdc:	01613023          	sd	s6,0(sp)
    80001ce0:	04010413          	addi	s0,sp,64
    80001ce4:	00050a93          	mv	s5,a0
    80001ce8:	00060a13          	mv	s4,a2
    80001cec:	000017b7          	lui	a5,0x1
    80001cf0:	fff78793          	addi	a5,a5,-1 # 0xfff
    80001cf4:	00f585b3          	add	a1,a1,a5
    80001cf8:	fffff7b7          	lui	a5,0xfffff
    80001cfc:	00f5f9b3          	and	s3,a1,a5
    80001d00:	0cc9f863          	bgeu	s3,a2,0x80001dd0
    80001d04:	00098913          	mv	s2,s3
    80001d08:	0126eb13          	ori	s6,a3,18
    80001d0c:	fffff097          	auipc	ra,0xfffff
    80001d10:	220080e7          	jalr	544(ra) # 0x80000f2c
    80001d14:	00050493          	mv	s1,a0
    80001d18:	04050463          	beqz	a0,0x80001d60
    80001d1c:	00001637          	lui	a2,0x1
    80001d20:	00000593          	li	a1,0
    80001d24:	fffff097          	auipc	ra,0xfffff
    80001d28:	4cc080e7          	jalr	1228(ra) # 0x800011f0
    80001d2c:	000b0713          	mv	a4,s6
    80001d30:	00048693          	mv	a3,s1
    80001d34:	00001637          	lui	a2,0x1
    80001d38:	00090593          	mv	a1,s2
    80001d3c:	000a8513          	mv	a0,s5
    80001d40:	00000097          	auipc	ra,0x0
    80001d44:	b14080e7          	jalr	-1260(ra) # 0x80001854
    80001d48:	04051c63          	bnez	a0,0x80001da0
    80001d4c:	000017b7          	lui	a5,0x1
    80001d50:	00f90933          	add	s2,s2,a5
    80001d54:	fb496ce3          	bltu	s2,s4,0x80001d0c
    80001d58:	000a0513          	mv	a0,s4
    80001d5c:	01c0006f          	j	0x80001d78
    80001d60:	00098613          	mv	a2,s3
    80001d64:	00090593          	mv	a1,s2
    80001d68:	000a8513          	mv	a0,s5
    80001d6c:	00000097          	auipc	ra,0x0
    80001d70:	ed4080e7          	jalr	-300(ra) # 0x80001c40
    80001d74:	00000513          	li	a0,0
    80001d78:	03813083          	ld	ra,56(sp)
    80001d7c:	03013403          	ld	s0,48(sp)
    80001d80:	02813483          	ld	s1,40(sp)
    80001d84:	02013903          	ld	s2,32(sp)
    80001d88:	01813983          	ld	s3,24(sp)
    80001d8c:	01013a03          	ld	s4,16(sp)
    80001d90:	00813a83          	ld	s5,8(sp)
    80001d94:	00013b03          	ld	s6,0(sp)
    80001d98:	04010113          	addi	sp,sp,64
    80001d9c:	00008067          	ret
    80001da0:	00048513          	mv	a0,s1
    80001da4:	fffff097          	auipc	ra,0xfffff
    80001da8:	01c080e7          	jalr	28(ra) # 0x80000dc0
    80001dac:	00098613          	mv	a2,s3
    80001db0:	00090593          	mv	a1,s2
    80001db4:	000a8513          	mv	a0,s5
    80001db8:	00000097          	auipc	ra,0x0
    80001dbc:	e88080e7          	jalr	-376(ra) # 0x80001c40
    80001dc0:	00000513          	li	a0,0
    80001dc4:	fb5ff06f          	j	0x80001d78
    80001dc8:	00058513          	mv	a0,a1
    80001dcc:	00008067          	ret
    80001dd0:	00060513          	mv	a0,a2
    80001dd4:	fa5ff06f          	j	0x80001d78
    80001dd8:	fd010113          	addi	sp,sp,-48
    80001ddc:	02113423          	sd	ra,40(sp)
    80001de0:	02813023          	sd	s0,32(sp)
    80001de4:	00913c23          	sd	s1,24(sp)
    80001de8:	01213823          	sd	s2,16(sp)
    80001dec:	01313423          	sd	s3,8(sp)
    80001df0:	01413023          	sd	s4,0(sp)
    80001df4:	03010413          	addi	s0,sp,48
    80001df8:	00050a13          	mv	s4,a0
    80001dfc:	00050493          	mv	s1,a0
    80001e00:	00001937          	lui	s2,0x1
    80001e04:	01250933          	add	s2,a0,s2
    80001e08:	00100993          	li	s3,1
    80001e0c:	0200006f          	j	0x80001e2c
    80001e10:	00a7d793          	srli	a5,a5,0xa
    80001e14:	00c79513          	slli	a0,a5,0xc
    80001e18:	00000097          	auipc	ra,0x0
    80001e1c:	fc0080e7          	jalr	-64(ra) # 0x80001dd8
    80001e20:	0004b023          	sd	zero,0(s1)
    80001e24:	00848493          	addi	s1,s1,8
    80001e28:	03248463          	beq	s1,s2,0x80001e50
    80001e2c:	0004b783          	ld	a5,0(s1)
    80001e30:	00f7f713          	andi	a4,a5,15
    80001e34:	fd370ee3          	beq	a4,s3,0x80001e10
    80001e38:	0017f793          	andi	a5,a5,1
    80001e3c:	fe0784e3          	beqz	a5,0x80001e24
    80001e40:	00008517          	auipc	a0,0x8
    80001e44:	47050513          	addi	a0,a0,1136 # 0x8000a2b0
    80001e48:	fffff097          	auipc	ra,0xfffff
    80001e4c:	c38080e7          	jalr	-968(ra) # 0x80000a80
    80001e50:	000a0513          	mv	a0,s4
    80001e54:	fffff097          	auipc	ra,0xfffff
    80001e58:	f6c080e7          	jalr	-148(ra) # 0x80000dc0
    80001e5c:	02813083          	ld	ra,40(sp)
    80001e60:	02013403          	ld	s0,32(sp)
    80001e64:	01813483          	ld	s1,24(sp)
    80001e68:	01013903          	ld	s2,16(sp)
    80001e6c:	00813983          	ld	s3,8(sp)
    80001e70:	00013a03          	ld	s4,0(sp)
    80001e74:	03010113          	addi	sp,sp,48
    80001e78:	00008067          	ret
    80001e7c:	fe010113          	addi	sp,sp,-32
    80001e80:	00113c23          	sd	ra,24(sp)
    80001e84:	00813823          	sd	s0,16(sp)
    80001e88:	00913423          	sd	s1,8(sp)
    80001e8c:	02010413          	addi	s0,sp,32
    80001e90:	00050493          	mv	s1,a0
    80001e94:	02059263          	bnez	a1,0x80001eb8
    80001e98:	00048513          	mv	a0,s1
    80001e9c:	00000097          	auipc	ra,0x0
    80001ea0:	f3c080e7          	jalr	-196(ra) # 0x80001dd8
    80001ea4:	01813083          	ld	ra,24(sp)
    80001ea8:	01013403          	ld	s0,16(sp)
    80001eac:	00813483          	ld	s1,8(sp)
    80001eb0:	02010113          	addi	sp,sp,32
    80001eb4:	00008067          	ret
    80001eb8:	000017b7          	lui	a5,0x1
    80001ebc:	fff78793          	addi	a5,a5,-1 # 0xfff
    80001ec0:	00f585b3          	add	a1,a1,a5
    80001ec4:	00100693          	li	a3,1
    80001ec8:	00c5d613          	srli	a2,a1,0xc
    80001ecc:	00000593          	li	a1,0
    80001ed0:	00000097          	auipc	ra,0x0
    80001ed4:	ca0080e7          	jalr	-864(ra) # 0x80001b70
    80001ed8:	fc1ff06f          	j	0x80001e98
    80001edc:	10060e63          	beqz	a2,0x80001ff8
    80001ee0:	fb010113          	addi	sp,sp,-80
    80001ee4:	04113423          	sd	ra,72(sp)
    80001ee8:	04813023          	sd	s0,64(sp)
    80001eec:	02913c23          	sd	s1,56(sp)
    80001ef0:	03213823          	sd	s2,48(sp)
    80001ef4:	03313423          	sd	s3,40(sp)
    80001ef8:	03413023          	sd	s4,32(sp)
    80001efc:	01513c23          	sd	s5,24(sp)
    80001f00:	01613823          	sd	s6,16(sp)
    80001f04:	01713423          	sd	s7,8(sp)
    80001f08:	05010413          	addi	s0,sp,80
    80001f0c:	00050a93          	mv	s5,a0
    80001f10:	00058b13          	mv	s6,a1
    80001f14:	00060a13          	mv	s4,a2
    80001f18:	00000493          	li	s1,0
    80001f1c:	0100006f          	j	0x80001f2c
    80001f20:	000017b7          	lui	a5,0x1
    80001f24:	00f484b3          	add	s1,s1,a5
    80001f28:	0b44f063          	bgeu	s1,s4,0x80001fc8
    80001f2c:	00000613          	li	a2,0
    80001f30:	00048593          	mv	a1,s1
    80001f34:	000a8513          	mv	a0,s5
    80001f38:	fffff097          	auipc	ra,0xfffff
    80001f3c:	7b4080e7          	jalr	1972(ra) # 0x800016ec
    80001f40:	fe0500e3          	beqz	a0,0x80001f20
    80001f44:	00053703          	ld	a4,0(a0)
    80001f48:	00177793          	andi	a5,a4,1
    80001f4c:	fc078ae3          	beqz	a5,0x80001f20
    80001f50:	00a75593          	srli	a1,a4,0xa
    80001f54:	00c59b93          	slli	s7,a1,0xc
    80001f58:	3ff77913          	andi	s2,a4,1023
    80001f5c:	fffff097          	auipc	ra,0xfffff
    80001f60:	fd0080e7          	jalr	-48(ra) # 0x80000f2c
    80001f64:	00050993          	mv	s3,a0
    80001f68:	04050063          	beqz	a0,0x80001fa8
    80001f6c:	00001637          	lui	a2,0x1
    80001f70:	000b8593          	mv	a1,s7
    80001f74:	fffff097          	auipc	ra,0xfffff
    80001f78:	310080e7          	jalr	784(ra) # 0x80001284
    80001f7c:	00090713          	mv	a4,s2
    80001f80:	00098693          	mv	a3,s3
    80001f84:	00001637          	lui	a2,0x1
    80001f88:	00048593          	mv	a1,s1
    80001f8c:	000b0513          	mv	a0,s6
    80001f90:	00000097          	auipc	ra,0x0
    80001f94:	8c4080e7          	jalr	-1852(ra) # 0x80001854
    80001f98:	f80504e3          	beqz	a0,0x80001f20
    80001f9c:	00098513          	mv	a0,s3
    80001fa0:	fffff097          	auipc	ra,0xfffff
    80001fa4:	e20080e7          	jalr	-480(ra) # 0x80000dc0
    80001fa8:	00100693          	li	a3,1
    80001fac:	00c4d613          	srli	a2,s1,0xc
    80001fb0:	00000593          	li	a1,0
    80001fb4:	000b0513          	mv	a0,s6
    80001fb8:	00000097          	auipc	ra,0x0
    80001fbc:	bb8080e7          	jalr	-1096(ra) # 0x80001b70
    80001fc0:	fff00513          	li	a0,-1
    80001fc4:	0080006f          	j	0x80001fcc
    80001fc8:	00000513          	li	a0,0
    80001fcc:	04813083          	ld	ra,72(sp)
    80001fd0:	04013403          	ld	s0,64(sp)
    80001fd4:	03813483          	ld	s1,56(sp)
    80001fd8:	03013903          	ld	s2,48(sp)
    80001fdc:	02813983          	ld	s3,40(sp)
    80001fe0:	02013a03          	ld	s4,32(sp)
    80001fe4:	01813a83          	ld	s5,24(sp)
    80001fe8:	01013b03          	ld	s6,16(sp)
    80001fec:	00813b83          	ld	s7,8(sp)
    80001ff0:	05010113          	addi	sp,sp,80
    80001ff4:	00008067          	ret
    80001ff8:	00000513          	li	a0,0
    80001ffc:	00008067          	ret
    80002000:	ff010113          	addi	sp,sp,-16
    80002004:	00113423          	sd	ra,8(sp)
    80002008:	00813023          	sd	s0,0(sp)
    8000200c:	01010413          	addi	s0,sp,16
    80002010:	00000613          	li	a2,0
    80002014:	fffff097          	auipc	ra,0xfffff
    80002018:	6d8080e7          	jalr	1752(ra) # 0x800016ec
    8000201c:	02050063          	beqz	a0,0x8000203c
    80002020:	00053783          	ld	a5,0(a0)
    80002024:	fef7f793          	andi	a5,a5,-17
    80002028:	00f53023          	sd	a5,0(a0)
    8000202c:	00813083          	ld	ra,8(sp)
    80002030:	00013403          	ld	s0,0(sp)
    80002034:	01010113          	addi	sp,sp,16
    80002038:	00008067          	ret
    8000203c:	00008517          	auipc	a0,0x8
    80002040:	28450513          	addi	a0,a0,644 # 0x8000a2c0
    80002044:	fffff097          	auipc	ra,0xfffff
    80002048:	a3c080e7          	jalr	-1476(ra) # 0x80000a80
    8000204c:	10068663          	beqz	a3,0x80002158
    80002050:	fb010113          	addi	sp,sp,-80
    80002054:	04113423          	sd	ra,72(sp)
    80002058:	04813023          	sd	s0,64(sp)
    8000205c:	02913c23          	sd	s1,56(sp)
    80002060:	03213823          	sd	s2,48(sp)
    80002064:	03313423          	sd	s3,40(sp)
    80002068:	03413023          	sd	s4,32(sp)
    8000206c:	01513c23          	sd	s5,24(sp)
    80002070:	01613823          	sd	s6,16(sp)
    80002074:	01713423          	sd	s7,8(sp)
    80002078:	05010413          	addi	s0,sp,80
    8000207c:	00050a13          	mv	s4,a0
    80002080:	00058b13          	mv	s6,a1
    80002084:	00060b93          	mv	s7,a2
    80002088:	00068493          	mv	s1,a3
    8000208c:	fffffab7          	lui	s5,0xfffff
    80002090:	000019b7          	lui	s3,0x1
    80002094:	0480006f          	j	0x800020dc
    80002098:	00078023          	sb	zero,0(a5) # 0x1000
    8000209c:	00100793          	li	a5,1
    800020a0:	fff7879b          	addiw	a5,a5,-1
    800020a4:	0007851b          	sext.w	a0,a5
    800020a8:	04813083          	ld	ra,72(sp)
    800020ac:	04013403          	ld	s0,64(sp)
    800020b0:	03813483          	ld	s1,56(sp)
    800020b4:	03013903          	ld	s2,48(sp)
    800020b8:	02813983          	ld	s3,40(sp)
    800020bc:	02013a03          	ld	s4,32(sp)
    800020c0:	01813a83          	ld	s5,24(sp)
    800020c4:	01013b03          	ld	s6,16(sp)
    800020c8:	00813b83          	ld	s7,8(sp)
    800020cc:	05010113          	addi	sp,sp,80
    800020d0:	00008067          	ret
    800020d4:	01390bb3          	add	s7,s2,s3
    800020d8:	06048863          	beqz	s1,0x80002148
    800020dc:	015bf933          	and	s2,s7,s5
    800020e0:	00090593          	mv	a1,s2
    800020e4:	000a0513          	mv	a0,s4
    800020e8:	fffff097          	auipc	ra,0xfffff
    800020ec:	700080e7          	jalr	1792(ra) # 0x800017e8
    800020f0:	06050063          	beqz	a0,0x80002150
    800020f4:	417906b3          	sub	a3,s2,s7
    800020f8:	013686b3          	add	a3,a3,s3
    800020fc:	00d4f463          	bgeu	s1,a3,0x80002104
    80002100:	00048693          	mv	a3,s1
    80002104:	01750533          	add	a0,a0,s7
    80002108:	41250533          	sub	a0,a0,s2
    8000210c:	fc0684e3          	beqz	a3,0x800020d4
    80002110:	000b0793          	mv	a5,s6
    80002114:	41650633          	sub	a2,a0,s6
    80002118:	fff48593          	addi	a1,s1,-1
    8000211c:	00bb05b3          	add	a1,s6,a1
    80002120:	00db06b3          	add	a3,s6,a3
    80002124:	00f60733          	add	a4,a2,a5
    80002128:	00074703          	lbu	a4,0(a4)
    8000212c:	f60706e3          	beqz	a4,0x80002098
    80002130:	00e78023          	sb	a4,0(a5)
    80002134:	40f584b3          	sub	s1,a1,a5
    80002138:	00178793          	addi	a5,a5,1
    8000213c:	fed794e3          	bne	a5,a3,0x80002124
    80002140:	00078b13          	mv	s6,a5
    80002144:	f91ff06f          	j	0x800020d4
    80002148:	00000793          	li	a5,0
    8000214c:	f55ff06f          	j	0x800020a0
    80002150:	fff00513          	li	a0,-1
    80002154:	f55ff06f          	j	0x800020a8
    80002158:	00000793          	li	a5,0
    8000215c:	fff7879b          	addiw	a5,a5,-1
    80002160:	0007851b          	sext.w	a0,a5
    80002164:	00008067          	ret
    80002168:	ff010113          	addi	sp,sp,-16
    8000216c:	00113423          	sd	ra,8(sp)
    80002170:	00813023          	sd	s0,0(sp)
    80002174:	01010413          	addi	s0,sp,16
    80002178:	00000613          	li	a2,0
    8000217c:	fffff097          	auipc	ra,0xfffff
    80002180:	570080e7          	jalr	1392(ra) # 0x800016ec
    80002184:	00050e63          	beqz	a0,0x800021a0
    80002188:	00053503          	ld	a0,0(a0)
    8000218c:	00157513          	andi	a0,a0,1
    80002190:	00813083          	ld	ra,8(sp)
    80002194:	00013403          	ld	s0,0(sp)
    80002198:	01010113          	addi	sp,sp,16
    8000219c:	00008067          	ret
    800021a0:	00000513          	li	a0,0
    800021a4:	fedff06f          	j	0x80002190
    800021a8:	fd010113          	addi	sp,sp,-48
    800021ac:	02113423          	sd	ra,40(sp)
    800021b0:	02813023          	sd	s0,32(sp)
    800021b4:	00913c23          	sd	s1,24(sp)
    800021b8:	01213823          	sd	s2,16(sp)
    800021bc:	01313423          	sd	s3,8(sp)
    800021c0:	01413023          	sd	s4,0(sp)
    800021c4:	03010413          	addi	s0,sp,48
    800021c8:	00050993          	mv	s3,a0
    800021cc:	00058493          	mv	s1,a1
    800021d0:	00000097          	auipc	ra,0x0
    800021d4:	528080e7          	jalr	1320(ra) # 0x800026f8
    800021d8:	04853783          	ld	a5,72(a0)
    800021dc:	02f4e663          	bltu	s1,a5,0x80002208
    800021e0:	00000993          	li	s3,0
    800021e4:	00098513          	mv	a0,s3
    800021e8:	02813083          	ld	ra,40(sp)
    800021ec:	02013403          	ld	s0,32(sp)
    800021f0:	01813483          	ld	s1,24(sp)
    800021f4:	01013903          	ld	s2,16(sp)
    800021f8:	00813983          	ld	s3,8(sp)
    800021fc:	00013a03          	ld	s4,0(sp)
    80002200:	03010113          	addi	sp,sp,48
    80002204:	00008067          	ret
    80002208:	00050913          	mv	s2,a0
    8000220c:	fffff7b7          	lui	a5,0xfffff
    80002210:	00f4f4b3          	and	s1,s1,a5
    80002214:	00048593          	mv	a1,s1
    80002218:	00098513          	mv	a0,s3
    8000221c:	00000097          	auipc	ra,0x0
    80002220:	f4c080e7          	jalr	-180(ra) # 0x80002168
    80002224:	00000993          	li	s3,0
    80002228:	fa051ee3          	bnez	a0,0x800021e4
    8000222c:	fffff097          	auipc	ra,0xfffff
    80002230:	d00080e7          	jalr	-768(ra) # 0x80000f2c
    80002234:	00050a13          	mv	s4,a0
    80002238:	fa0506e3          	beqz	a0,0x800021e4
    8000223c:	00050993          	mv	s3,a0
    80002240:	00001637          	lui	a2,0x1
    80002244:	00000593          	li	a1,0
    80002248:	fffff097          	auipc	ra,0xfffff
    8000224c:	fa8080e7          	jalr	-88(ra) # 0x800011f0
    80002250:	01600713          	li	a4,22
    80002254:	000a0693          	mv	a3,s4
    80002258:	00001637          	lui	a2,0x1
    8000225c:	00048593          	mv	a1,s1
    80002260:	05093503          	ld	a0,80(s2) # 0x1050
    80002264:	fffff097          	auipc	ra,0xfffff
    80002268:	5f0080e7          	jalr	1520(ra) # 0x80001854
    8000226c:	f6050ce3          	beqz	a0,0x800021e4
    80002270:	000a0513          	mv	a0,s4
    80002274:	fffff097          	auipc	ra,0xfffff
    80002278:	b4c080e7          	jalr	-1204(ra) # 0x80000dc0
    8000227c:	00000993          	li	s3,0
    80002280:	f65ff06f          	j	0x800021e4
    80002284:	10068663          	beqz	a3,0x80002390
    80002288:	fa010113          	addi	sp,sp,-96
    8000228c:	04113c23          	sd	ra,88(sp)
    80002290:	04813823          	sd	s0,80(sp)
    80002294:	04913423          	sd	s1,72(sp)
    80002298:	05213023          	sd	s2,64(sp)
    8000229c:	03313c23          	sd	s3,56(sp)
    800022a0:	03413823          	sd	s4,48(sp)
    800022a4:	03513423          	sd	s5,40(sp)
    800022a8:	03613023          	sd	s6,32(sp)
    800022ac:	01713c23          	sd	s7,24(sp)
    800022b0:	01813823          	sd	s8,16(sp)
    800022b4:	01913423          	sd	s9,8(sp)
    800022b8:	01a13023          	sd	s10,0(sp)
    800022bc:	06010413          	addi	s0,sp,96
    800022c0:	00050c13          	mv	s8,a0
    800022c4:	00058b13          	mv	s6,a1
    800022c8:	00060b93          	mv	s7,a2
    800022cc:	00068a13          	mv	s4,a3
    800022d0:	fffff4b7          	lui	s1,0xfffff
    800022d4:	0095f4b3          	and	s1,a1,s1
    800022d8:	fff00793          	li	a5,-1
    800022dc:	01a7d793          	srli	a5,a5,0x1a
    800022e0:	0a97ec63          	bltu	a5,s1,0x80002398
    800022e4:	00001d37          	lui	s10,0x1
    800022e8:	00078c93          	mv	s9,a5
    800022ec:	0340006f          	j	0x80002320
    800022f0:	409b0533          	sub	a0,s6,s1
    800022f4:	0009861b          	sext.w	a2,s3
    800022f8:	000b8593          	mv	a1,s7
    800022fc:	01250533          	add	a0,a0,s2
    80002300:	fffff097          	auipc	ra,0xfffff
    80002304:	f84080e7          	jalr	-124(ra) # 0x80001284
    80002308:	413a0a33          	sub	s4,s4,s3
    8000230c:	013b8bb3          	add	s7,s7,s3
    80002310:	060a0c63          	beqz	s4,0x80002388
    80002314:	095ce663          	bltu	s9,s5,0x800023a0
    80002318:	000a8493          	mv	s1,s5
    8000231c:	000a8b13          	mv	s6,s5
    80002320:	00048593          	mv	a1,s1
    80002324:	000c0513          	mv	a0,s8
    80002328:	fffff097          	auipc	ra,0xfffff
    8000232c:	4c0080e7          	jalr	1216(ra) # 0x800017e8
    80002330:	00050913          	mv	s2,a0
    80002334:	02051063          	bnez	a0,0x80002354
    80002338:	00000613          	li	a2,0
    8000233c:	00048593          	mv	a1,s1
    80002340:	000c0513          	mv	a0,s8
    80002344:	00000097          	auipc	ra,0x0
    80002348:	e64080e7          	jalr	-412(ra) # 0x800021a8
    8000234c:	00050913          	mv	s2,a0
    80002350:	04050c63          	beqz	a0,0x800023a8
    80002354:	00000613          	li	a2,0
    80002358:	00048593          	mv	a1,s1
    8000235c:	000c0513          	mv	a0,s8
    80002360:	fffff097          	auipc	ra,0xfffff
    80002364:	38c080e7          	jalr	908(ra) # 0x800016ec
    80002368:	00053783          	ld	a5,0(a0)
    8000236c:	0047f793          	andi	a5,a5,4
    80002370:	04078063          	beqz	a5,0x800023b0
    80002374:	01a48ab3          	add	s5,s1,s10
    80002378:	416a89b3          	sub	s3,s5,s6
    8000237c:	f73a7ae3          	bgeu	s4,s3,0x800022f0
    80002380:	000a0993          	mv	s3,s4
    80002384:	f6dff06f          	j	0x800022f0
    80002388:	00000513          	li	a0,0
    8000238c:	0280006f          	j	0x800023b4
    80002390:	00000513          	li	a0,0
    80002394:	00008067          	ret
    80002398:	fff00513          	li	a0,-1
    8000239c:	0180006f          	j	0x800023b4
    800023a0:	fff00513          	li	a0,-1
    800023a4:	0100006f          	j	0x800023b4
    800023a8:	fff00513          	li	a0,-1
    800023ac:	0080006f          	j	0x800023b4
    800023b0:	fff00513          	li	a0,-1
    800023b4:	05813083          	ld	ra,88(sp)
    800023b8:	05013403          	ld	s0,80(sp)
    800023bc:	04813483          	ld	s1,72(sp)
    800023c0:	04013903          	ld	s2,64(sp)
    800023c4:	03813983          	ld	s3,56(sp)
    800023c8:	03013a03          	ld	s4,48(sp)
    800023cc:	02813a83          	ld	s5,40(sp)
    800023d0:	02013b03          	ld	s6,32(sp)
    800023d4:	01813b83          	ld	s7,24(sp)
    800023d8:	01013c03          	ld	s8,16(sp)
    800023dc:	00813c83          	ld	s9,8(sp)
    800023e0:	00013d03          	ld	s10,0(sp)
    800023e4:	06010113          	addi	sp,sp,96
    800023e8:	00008067          	ret
    800023ec:	0e068a63          	beqz	a3,0x800024e0
    800023f0:	fb010113          	addi	sp,sp,-80
    800023f4:	04113423          	sd	ra,72(sp)
    800023f8:	04813023          	sd	s0,64(sp)
    800023fc:	02913c23          	sd	s1,56(sp)
    80002400:	03213823          	sd	s2,48(sp)
    80002404:	03313423          	sd	s3,40(sp)
    80002408:	03413023          	sd	s4,32(sp)
    8000240c:	01513c23          	sd	s5,24(sp)
    80002410:	01613823          	sd	s6,16(sp)
    80002414:	01713423          	sd	s7,8(sp)
    80002418:	01813023          	sd	s8,0(sp)
    8000241c:	05010413          	addi	s0,sp,80
    80002420:	00050b93          	mv	s7,a0
    80002424:	00058a93          	mv	s5,a1
    80002428:	00060913          	mv	s2,a2
    8000242c:	00068a13          	mv	s4,a3
    80002430:	fffffc37          	lui	s8,0xfffff
    80002434:	00001b37          	lui	s6,0x1
    80002438:	03c0006f          	j	0x80002474
    8000243c:	412984b3          	sub	s1,s3,s2
    80002440:	016484b3          	add	s1,s1,s6
    80002444:	009a7463          	bgeu	s4,s1,0x8000244c
    80002448:	000a0493          	mv	s1,s4
    8000244c:	413905b3          	sub	a1,s2,s3
    80002450:	0004861b          	sext.w	a2,s1
    80002454:	00a585b3          	add	a1,a1,a0
    80002458:	000a8513          	mv	a0,s5
    8000245c:	fffff097          	auipc	ra,0xfffff
    80002460:	e28080e7          	jalr	-472(ra) # 0x80001284
    80002464:	409a0a33          	sub	s4,s4,s1
    80002468:	009a8ab3          	add	s5,s5,s1
    8000246c:	01698933          	add	s2,s3,s6
    80002470:	020a0e63          	beqz	s4,0x800024ac
    80002474:	018979b3          	and	s3,s2,s8
    80002478:	00098593          	mv	a1,s3
    8000247c:	000b8513          	mv	a0,s7
    80002480:	fffff097          	auipc	ra,0xfffff
    80002484:	368080e7          	jalr	872(ra) # 0x800017e8
    80002488:	fa051ae3          	bnez	a0,0x8000243c
    8000248c:	00000613          	li	a2,0
    80002490:	00098593          	mv	a1,s3
    80002494:	000b8513          	mv	a0,s7
    80002498:	00000097          	auipc	ra,0x0
    8000249c:	d10080e7          	jalr	-752(ra) # 0x800021a8
    800024a0:	f8051ee3          	bnez	a0,0x8000243c
    800024a4:	fff00513          	li	a0,-1
    800024a8:	0080006f          	j	0x800024b0
    800024ac:	00000513          	li	a0,0
    800024b0:	04813083          	ld	ra,72(sp)
    800024b4:	04013403          	ld	s0,64(sp)
    800024b8:	03813483          	ld	s1,56(sp)
    800024bc:	03013903          	ld	s2,48(sp)
    800024c0:	02813983          	ld	s3,40(sp)
    800024c4:	02013a03          	ld	s4,32(sp)
    800024c8:	01813a83          	ld	s5,24(sp)
    800024cc:	01013b03          	ld	s6,16(sp)
    800024d0:	00813b83          	ld	s7,8(sp)
    800024d4:	00013c03          	ld	s8,0(sp)
    800024d8:	05010113          	addi	sp,sp,80
    800024dc:	00008067          	ret
    800024e0:	00000513          	li	a0,0
    800024e4:	00008067          	ret
    800024e8:	fc010113          	addi	sp,sp,-64
    800024ec:	02113c23          	sd	ra,56(sp)
    800024f0:	02813823          	sd	s0,48(sp)
    800024f4:	02913423          	sd	s1,40(sp)
    800024f8:	03213023          	sd	s2,32(sp)
    800024fc:	01313c23          	sd	s3,24(sp)
    80002500:	01413823          	sd	s4,16(sp)
    80002504:	01513423          	sd	s5,8(sp)
    80002508:	01613023          	sd	s6,0(sp)
    8000250c:	04010413          	addi	s0,sp,64
    80002510:	00050993          	mv	s3,a0
    80002514:	00011497          	auipc	s1,0x11
    80002518:	9d448493          	addi	s1,s1,-1580 # 0x80012ee8
    8000251c:	00048b13          	mv	s6,s1
    80002520:	00008a97          	auipc	s5,0x8
    80002524:	ae0a8a93          	addi	s5,s5,-1312 # 0x8000a000
    80002528:	04000937          	lui	s2,0x4000
    8000252c:	fff90913          	addi	s2,s2,-1 # 0x3ffffff
    80002530:	00c91913          	slli	s2,s2,0xc
    80002534:	00016a17          	auipc	s4,0x16
    80002538:	3b4a0a13          	addi	s4,s4,948 # 0x800188e8
    8000253c:	fffff097          	auipc	ra,0xfffff
    80002540:	9f0080e7          	jalr	-1552(ra) # 0x80000f2c
    80002544:	00050613          	mv	a2,a0
    80002548:	06050263          	beqz	a0,0x800025ac
    8000254c:	416485b3          	sub	a1,s1,s6
    80002550:	4035d593          	srai	a1,a1,0x3
    80002554:	000ab783          	ld	a5,0(s5)
    80002558:	02f585b3          	mul	a1,a1,a5
    8000255c:	0015859b          	addiw	a1,a1,1
    80002560:	00d5959b          	slliw	a1,a1,0xd
    80002564:	00600713          	li	a4,6
    80002568:	000016b7          	lui	a3,0x1
    8000256c:	40b905b3          	sub	a1,s2,a1
    80002570:	00098513          	mv	a0,s3
    80002574:	fffff097          	auipc	ra,0xfffff
    80002578:	400080e7          	jalr	1024(ra) # 0x80001974
    8000257c:	16848493          	addi	s1,s1,360
    80002580:	fb449ee3          	bne	s1,s4,0x8000253c
    80002584:	03813083          	ld	ra,56(sp)
    80002588:	03013403          	ld	s0,48(sp)
    8000258c:	02813483          	ld	s1,40(sp)
    80002590:	02013903          	ld	s2,32(sp)
    80002594:	01813983          	ld	s3,24(sp)
    80002598:	01013a03          	ld	s4,16(sp)
    8000259c:	00813a83          	ld	s5,8(sp)
    800025a0:	00013b03          	ld	s6,0(sp)
    800025a4:	04010113          	addi	sp,sp,64
    800025a8:	00008067          	ret
    800025ac:	00008517          	auipc	a0,0x8
    800025b0:	d2450513          	addi	a0,a0,-732 # 0x8000a2d0
    800025b4:	ffffe097          	auipc	ra,0xffffe
    800025b8:	4cc080e7          	jalr	1228(ra) # 0x80000a80
    800025bc:	fc010113          	addi	sp,sp,-64
    800025c0:	02113c23          	sd	ra,56(sp)
    800025c4:	02813823          	sd	s0,48(sp)
    800025c8:	02913423          	sd	s1,40(sp)
    800025cc:	03213023          	sd	s2,32(sp)
    800025d0:	01313c23          	sd	s3,24(sp)
    800025d4:	01413823          	sd	s4,16(sp)
    800025d8:	01513423          	sd	s5,8(sp)
    800025dc:	01613023          	sd	s6,0(sp)
    800025e0:	04010413          	addi	s0,sp,64
    800025e4:	00008597          	auipc	a1,0x8
    800025e8:	cf458593          	addi	a1,a1,-780 # 0x8000a2d8
    800025ec:	00010517          	auipc	a0,0x10
    800025f0:	4cc50513          	addi	a0,a0,1228 # 0x80012ab8
    800025f4:	fffff097          	auipc	ra,0xfffff
    800025f8:	9c0080e7          	jalr	-1600(ra) # 0x80000fb4
    800025fc:	00008597          	auipc	a1,0x8
    80002600:	ce458593          	addi	a1,a1,-796 # 0x8000a2e0
    80002604:	00010517          	auipc	a0,0x10
    80002608:	4cc50513          	addi	a0,a0,1228 # 0x80012ad0
    8000260c:	fffff097          	auipc	ra,0xfffff
    80002610:	9a8080e7          	jalr	-1624(ra) # 0x80000fb4
    80002614:	00011497          	auipc	s1,0x11
    80002618:	8d448493          	addi	s1,s1,-1836 # 0x80012ee8
    8000261c:	00008b17          	auipc	s6,0x8
    80002620:	cd4b0b13          	addi	s6,s6,-812 # 0x8000a2f0
    80002624:	00048a93          	mv	s5,s1
    80002628:	00008a17          	auipc	s4,0x8
    8000262c:	9d8a0a13          	addi	s4,s4,-1576 # 0x8000a000
    80002630:	04000937          	lui	s2,0x4000
    80002634:	fff90913          	addi	s2,s2,-1 # 0x3ffffff
    80002638:	00c91913          	slli	s2,s2,0xc
    8000263c:	00016997          	auipc	s3,0x16
    80002640:	2ac98993          	addi	s3,s3,684 # 0x800188e8
    80002644:	000b0593          	mv	a1,s6
    80002648:	00048513          	mv	a0,s1
    8000264c:	fffff097          	auipc	ra,0xfffff
    80002650:	968080e7          	jalr	-1688(ra) # 0x80000fb4
    80002654:	0004ac23          	sw	zero,24(s1)
    80002658:	415487b3          	sub	a5,s1,s5
    8000265c:	4037d793          	srai	a5,a5,0x3
    80002660:	000a3703          	ld	a4,0(s4)
    80002664:	02e787b3          	mul	a5,a5,a4
    80002668:	0017879b          	addiw	a5,a5,1 # 0xfffffffffffff001
    8000266c:	00d7979b          	slliw	a5,a5,0xd
    80002670:	40f907b3          	sub	a5,s2,a5
    80002674:	04f4b023          	sd	a5,64(s1)
    80002678:	16848493          	addi	s1,s1,360
    8000267c:	fd3494e3          	bne	s1,s3,0x80002644
    80002680:	03813083          	ld	ra,56(sp)
    80002684:	03013403          	ld	s0,48(sp)
    80002688:	02813483          	ld	s1,40(sp)
    8000268c:	02013903          	ld	s2,32(sp)
    80002690:	01813983          	ld	s3,24(sp)
    80002694:	01013a03          	ld	s4,16(sp)
    80002698:	00813a83          	ld	s5,8(sp)
    8000269c:	00013b03          	ld	s6,0(sp)
    800026a0:	04010113          	addi	sp,sp,64
    800026a4:	00008067          	ret
    800026a8:	ff010113          	addi	sp,sp,-16
    800026ac:	00813423          	sd	s0,8(sp)
    800026b0:	01010413          	addi	s0,sp,16
    800026b4:	00020513          	mv	a0,tp
    800026b8:	0005051b          	sext.w	a0,a0
    800026bc:	00813403          	ld	s0,8(sp)
    800026c0:	01010113          	addi	sp,sp,16
    800026c4:	00008067          	ret
    800026c8:	ff010113          	addi	sp,sp,-16
    800026cc:	00813423          	sd	s0,8(sp)
    800026d0:	01010413          	addi	s0,sp,16
    800026d4:	00020793          	mv	a5,tp
    800026d8:	0007879b          	sext.w	a5,a5
    800026dc:	00779793          	slli	a5,a5,0x7
    800026e0:	00010517          	auipc	a0,0x10
    800026e4:	40850513          	addi	a0,a0,1032 # 0x80012ae8
    800026e8:	00f50533          	add	a0,a0,a5
    800026ec:	00813403          	ld	s0,8(sp)
    800026f0:	01010113          	addi	sp,sp,16
    800026f4:	00008067          	ret
    800026f8:	fe010113          	addi	sp,sp,-32
    800026fc:	00113c23          	sd	ra,24(sp)
    80002700:	00813823          	sd	s0,16(sp)
    80002704:	00913423          	sd	s1,8(sp)
    80002708:	02010413          	addi	s0,sp,32
    8000270c:	fffff097          	auipc	ra,0xfffff
    80002710:	918080e7          	jalr	-1768(ra) # 0x80001024
    80002714:	00020793          	mv	a5,tp
    80002718:	0007879b          	sext.w	a5,a5
    8000271c:	00779793          	slli	a5,a5,0x7
    80002720:	00010717          	auipc	a4,0x10
    80002724:	39870713          	addi	a4,a4,920 # 0x80012ab8
    80002728:	00f707b3          	add	a5,a4,a5
    8000272c:	0307b483          	ld	s1,48(a5)
    80002730:	fffff097          	auipc	ra,0xfffff
    80002734:	9e0080e7          	jalr	-1568(ra) # 0x80001110
    80002738:	00048513          	mv	a0,s1
    8000273c:	01813083          	ld	ra,24(sp)
    80002740:	01013403          	ld	s0,16(sp)
    80002744:	00813483          	ld	s1,8(sp)
    80002748:	02010113          	addi	sp,sp,32
    8000274c:	00008067          	ret
    80002750:	fd010113          	addi	sp,sp,-48
    80002754:	02113423          	sd	ra,40(sp)
    80002758:	02813023          	sd	s0,32(sp)
    8000275c:	00913c23          	sd	s1,24(sp)
    80002760:	03010413          	addi	s0,sp,48
    80002764:	00000097          	auipc	ra,0x0
    80002768:	f94080e7          	jalr	-108(ra) # 0x800026f8
    8000276c:	00050493          	mv	s1,a0
    80002770:	fffff097          	auipc	ra,0xfffff
    80002774:	a20080e7          	jalr	-1504(ra) # 0x80001190
    80002778:	00008797          	auipc	a5,0x8
    8000277c:	2087a783          	lw	a5,520(a5) # 0x8000a980
    80002780:	04078863          	beqz	a5,0x800027d0
    80002784:	00100513          	li	a0,1
    80002788:	00003097          	auipc	ra,0x3
    8000278c:	be4080e7          	jalr	-1052(ra) # 0x8000536c
    80002790:	00008797          	auipc	a5,0x8
    80002794:	1e07a823          	sw	zero,496(a5) # 0x8000a980
    80002798:	0ff0000f          	fence
    8000279c:	00008517          	auipc	a0,0x8
    800027a0:	b5c50513          	addi	a0,a0,-1188 # 0x8000a2f8
    800027a4:	fca43823          	sd	a0,-48(s0)
    800027a8:	fc043c23          	sd	zero,-40(s0)
    800027ac:	fd040593          	addi	a1,s0,-48
    800027b0:	00004097          	auipc	ra,0x4
    800027b4:	690080e7          	jalr	1680(ra) # 0x80006e40
    800027b8:	0584b783          	ld	a5,88(s1)
    800027bc:	06a7b823          	sd	a0,112(a5)
    800027c0:	0584b783          	ld	a5,88(s1)
    800027c4:	0707b703          	ld	a4,112(a5)
    800027c8:	fff00793          	li	a5,-1
    800027cc:	04f70e63          	beq	a4,a5,0x80002828
    800027d0:	00001097          	auipc	ra,0x1
    800027d4:	15c080e7          	jalr	348(ra) # 0x8000392c
    800027d8:	0504b503          	ld	a0,80(s1)
    800027dc:	00c55513          	srli	a0,a0,0xc
    800027e0:	04000737          	lui	a4,0x4000
    800027e4:	00007797          	auipc	a5,0x7
    800027e8:	8cc78793          	addi	a5,a5,-1844 # 0x800090b0
    800027ec:	00007697          	auipc	a3,0x7
    800027f0:	81468693          	addi	a3,a3,-2028 # 0x80009000
    800027f4:	40d787b3          	sub	a5,a5,a3
    800027f8:	fff70713          	addi	a4,a4,-1 # 0x3ffffff
    800027fc:	00c71713          	slli	a4,a4,0xc
    80002800:	00e787b3          	add	a5,a5,a4
    80002804:	fff00713          	li	a4,-1
    80002808:	03f71713          	slli	a4,a4,0x3f
    8000280c:	00e56533          	or	a0,a0,a4
    80002810:	000780e7          	jalr	a5
    80002814:	02813083          	ld	ra,40(sp)
    80002818:	02013403          	ld	s0,32(sp)
    8000281c:	01813483          	ld	s1,24(sp)
    80002820:	03010113          	addi	sp,sp,48
    80002824:	00008067          	ret
    80002828:	00008517          	auipc	a0,0x8
    8000282c:	ad850513          	addi	a0,a0,-1320 # 0x8000a300
    80002830:	ffffe097          	auipc	ra,0xffffe
    80002834:	250080e7          	jalr	592(ra) # 0x80000a80
    80002838:	fe010113          	addi	sp,sp,-32
    8000283c:	00113c23          	sd	ra,24(sp)
    80002840:	00813823          	sd	s0,16(sp)
    80002844:	00913423          	sd	s1,8(sp)
    80002848:	01213023          	sd	s2,0(sp)
    8000284c:	02010413          	addi	s0,sp,32
    80002850:	00010917          	auipc	s2,0x10
    80002854:	26890913          	addi	s2,s2,616 # 0x80012ab8
    80002858:	00090513          	mv	a0,s2
    8000285c:	fffff097          	auipc	ra,0xfffff
    80002860:	83c080e7          	jalr	-1988(ra) # 0x80001098
    80002864:	00008797          	auipc	a5,0x8
    80002868:	12078793          	addi	a5,a5,288 # 0x8000a984
    8000286c:	0007a483          	lw	s1,0(a5)
    80002870:	0014871b          	addiw	a4,s1,1
    80002874:	00e7a023          	sw	a4,0(a5)
    80002878:	00090513          	mv	a0,s2
    8000287c:	fffff097          	auipc	ra,0xfffff
    80002880:	914080e7          	jalr	-1772(ra) # 0x80001190
    80002884:	00048513          	mv	a0,s1
    80002888:	01813083          	ld	ra,24(sp)
    8000288c:	01013403          	ld	s0,16(sp)
    80002890:	00813483          	ld	s1,8(sp)
    80002894:	00013903          	ld	s2,0(sp)
    80002898:	02010113          	addi	sp,sp,32
    8000289c:	00008067          	ret
    800028a0:	fe010113          	addi	sp,sp,-32
    800028a4:	00113c23          	sd	ra,24(sp)
    800028a8:	00813823          	sd	s0,16(sp)
    800028ac:	00913423          	sd	s1,8(sp)
    800028b0:	01213023          	sd	s2,0(sp)
    800028b4:	02010413          	addi	s0,sp,32
    800028b8:	00050913          	mv	s2,a0
    800028bc:	fffff097          	auipc	ra,0xfffff
    800028c0:	268080e7          	jalr	616(ra) # 0x80001b24
    800028c4:	00050493          	mv	s1,a0
    800028c8:	04050a63          	beqz	a0,0x8000291c
    800028cc:	00a00713          	li	a4,10
    800028d0:	00006697          	auipc	a3,0x6
    800028d4:	73068693          	addi	a3,a3,1840 # 0x80009000
    800028d8:	00001637          	lui	a2,0x1
    800028dc:	040005b7          	lui	a1,0x4000
    800028e0:	fff58593          	addi	a1,a1,-1 # 0x3ffffff
    800028e4:	00c59593          	slli	a1,a1,0xc
    800028e8:	fffff097          	auipc	ra,0xfffff
    800028ec:	f6c080e7          	jalr	-148(ra) # 0x80001854
    800028f0:	04054463          	bltz	a0,0x80002938
    800028f4:	00600713          	li	a4,6
    800028f8:	05893683          	ld	a3,88(s2)
    800028fc:	00001637          	lui	a2,0x1
    80002900:	020005b7          	lui	a1,0x2000
    80002904:	fff58593          	addi	a1,a1,-1 # 0x1ffffff
    80002908:	00d59593          	slli	a1,a1,0xd
    8000290c:	00048513          	mv	a0,s1
    80002910:	fffff097          	auipc	ra,0xfffff
    80002914:	f44080e7          	jalr	-188(ra) # 0x80001854
    80002918:	02054c63          	bltz	a0,0x80002950
    8000291c:	00048513          	mv	a0,s1
    80002920:	01813083          	ld	ra,24(sp)
    80002924:	01013403          	ld	s0,16(sp)
    80002928:	00813483          	ld	s1,8(sp)
    8000292c:	00013903          	ld	s2,0(sp)
    80002930:	02010113          	addi	sp,sp,32
    80002934:	00008067          	ret
    80002938:	00000593          	li	a1,0
    8000293c:	00048513          	mv	a0,s1
    80002940:	fffff097          	auipc	ra,0xfffff
    80002944:	53c080e7          	jalr	1340(ra) # 0x80001e7c
    80002948:	00000493          	li	s1,0
    8000294c:	fd1ff06f          	j	0x8000291c
    80002950:	00000693          	li	a3,0
    80002954:	00100613          	li	a2,1
    80002958:	040005b7          	lui	a1,0x4000
    8000295c:	fff58593          	addi	a1,a1,-1 # 0x3ffffff
    80002960:	00c59593          	slli	a1,a1,0xc
    80002964:	00048513          	mv	a0,s1
    80002968:	fffff097          	auipc	ra,0xfffff
    8000296c:	208080e7          	jalr	520(ra) # 0x80001b70
    80002970:	00000593          	li	a1,0
    80002974:	00048513          	mv	a0,s1
    80002978:	fffff097          	auipc	ra,0xfffff
    8000297c:	504080e7          	jalr	1284(ra) # 0x80001e7c
    80002980:	00000493          	li	s1,0
    80002984:	f99ff06f          	j	0x8000291c
    80002988:	fe010113          	addi	sp,sp,-32
    8000298c:	00113c23          	sd	ra,24(sp)
    80002990:	00813823          	sd	s0,16(sp)
    80002994:	00913423          	sd	s1,8(sp)
    80002998:	01213023          	sd	s2,0(sp)
    8000299c:	02010413          	addi	s0,sp,32
    800029a0:	00050493          	mv	s1,a0
    800029a4:	00058913          	mv	s2,a1
    800029a8:	00000693          	li	a3,0
    800029ac:	00100613          	li	a2,1
    800029b0:	040005b7          	lui	a1,0x4000
    800029b4:	fff58593          	addi	a1,a1,-1 # 0x3ffffff
    800029b8:	00c59593          	slli	a1,a1,0xc
    800029bc:	fffff097          	auipc	ra,0xfffff
    800029c0:	1b4080e7          	jalr	436(ra) # 0x80001b70
    800029c4:	00000693          	li	a3,0
    800029c8:	00100613          	li	a2,1
    800029cc:	020005b7          	lui	a1,0x2000
    800029d0:	fff58593          	addi	a1,a1,-1 # 0x1ffffff
    800029d4:	00d59593          	slli	a1,a1,0xd
    800029d8:	00048513          	mv	a0,s1
    800029dc:	fffff097          	auipc	ra,0xfffff
    800029e0:	194080e7          	jalr	404(ra) # 0x80001b70
    800029e4:	00090593          	mv	a1,s2
    800029e8:	00048513          	mv	a0,s1
    800029ec:	fffff097          	auipc	ra,0xfffff
    800029f0:	490080e7          	jalr	1168(ra) # 0x80001e7c
    800029f4:	01813083          	ld	ra,24(sp)
    800029f8:	01013403          	ld	s0,16(sp)
    800029fc:	00813483          	ld	s1,8(sp)
    80002a00:	00013903          	ld	s2,0(sp)
    80002a04:	02010113          	addi	sp,sp,32
    80002a08:	00008067          	ret
    80002a0c:	fe010113          	addi	sp,sp,-32
    80002a10:	00113c23          	sd	ra,24(sp)
    80002a14:	00813823          	sd	s0,16(sp)
    80002a18:	00913423          	sd	s1,8(sp)
    80002a1c:	02010413          	addi	s0,sp,32
    80002a20:	00050493          	mv	s1,a0
    80002a24:	05853503          	ld	a0,88(a0)
    80002a28:	00050663          	beqz	a0,0x80002a34
    80002a2c:	ffffe097          	auipc	ra,0xffffe
    80002a30:	394080e7          	jalr	916(ra) # 0x80000dc0
    80002a34:	0404bc23          	sd	zero,88(s1)
    80002a38:	0504b503          	ld	a0,80(s1)
    80002a3c:	00050863          	beqz	a0,0x80002a4c
    80002a40:	0484b583          	ld	a1,72(s1)
    80002a44:	00000097          	auipc	ra,0x0
    80002a48:	f44080e7          	jalr	-188(ra) # 0x80002988
    80002a4c:	0404b823          	sd	zero,80(s1)
    80002a50:	0404b423          	sd	zero,72(s1)
    80002a54:	0204a823          	sw	zero,48(s1)
    80002a58:	0204bc23          	sd	zero,56(s1)
    80002a5c:	14048c23          	sb	zero,344(s1)
    80002a60:	0204b023          	sd	zero,32(s1)
    80002a64:	0204a423          	sw	zero,40(s1)
    80002a68:	0204a623          	sw	zero,44(s1)
    80002a6c:	0004ac23          	sw	zero,24(s1)
    80002a70:	01813083          	ld	ra,24(sp)
    80002a74:	01013403          	ld	s0,16(sp)
    80002a78:	00813483          	ld	s1,8(sp)
    80002a7c:	02010113          	addi	sp,sp,32
    80002a80:	00008067          	ret
    80002a84:	fe010113          	addi	sp,sp,-32
    80002a88:	00113c23          	sd	ra,24(sp)
    80002a8c:	00813823          	sd	s0,16(sp)
    80002a90:	00913423          	sd	s1,8(sp)
    80002a94:	01213023          	sd	s2,0(sp)
    80002a98:	02010413          	addi	s0,sp,32
    80002a9c:	00010497          	auipc	s1,0x10
    80002aa0:	44c48493          	addi	s1,s1,1100 # 0x80012ee8
    80002aa4:	00016917          	auipc	s2,0x16
    80002aa8:	e4490913          	addi	s2,s2,-444 # 0x800188e8
    80002aac:	00048513          	mv	a0,s1
    80002ab0:	ffffe097          	auipc	ra,0xffffe
    80002ab4:	5e8080e7          	jalr	1512(ra) # 0x80001098
    80002ab8:	0184a783          	lw	a5,24(s1)
    80002abc:	02078063          	beqz	a5,0x80002adc
    80002ac0:	00048513          	mv	a0,s1
    80002ac4:	ffffe097          	auipc	ra,0xffffe
    80002ac8:	6cc080e7          	jalr	1740(ra) # 0x80001190
    80002acc:	16848493          	addi	s1,s1,360
    80002ad0:	fd249ee3          	bne	s1,s2,0x80002aac
    80002ad4:	00000493          	li	s1,0
    80002ad8:	0740006f          	j	0x80002b4c
    80002adc:	00000097          	auipc	ra,0x0
    80002ae0:	d5c080e7          	jalr	-676(ra) # 0x80002838
    80002ae4:	02a4a823          	sw	a0,48(s1)
    80002ae8:	00100793          	li	a5,1
    80002aec:	00f4ac23          	sw	a5,24(s1)
    80002af0:	ffffe097          	auipc	ra,0xffffe
    80002af4:	43c080e7          	jalr	1084(ra) # 0x80000f2c
    80002af8:	00050913          	mv	s2,a0
    80002afc:	04a4bc23          	sd	a0,88(s1)
    80002b00:	06050463          	beqz	a0,0x80002b68
    80002b04:	00048513          	mv	a0,s1
    80002b08:	00000097          	auipc	ra,0x0
    80002b0c:	d98080e7          	jalr	-616(ra) # 0x800028a0
    80002b10:	00050913          	mv	s2,a0
    80002b14:	04a4b823          	sd	a0,80(s1)
    80002b18:	06050863          	beqz	a0,0x80002b88
    80002b1c:	07000613          	li	a2,112
    80002b20:	00000593          	li	a1,0
    80002b24:	06048513          	addi	a0,s1,96
    80002b28:	ffffe097          	auipc	ra,0xffffe
    80002b2c:	6c8080e7          	jalr	1736(ra) # 0x800011f0
    80002b30:	00000797          	auipc	a5,0x0
    80002b34:	c2078793          	addi	a5,a5,-992 # 0x80002750
    80002b38:	06f4b023          	sd	a5,96(s1)
    80002b3c:	0404b783          	ld	a5,64(s1)
    80002b40:	00001737          	lui	a4,0x1
    80002b44:	00e787b3          	add	a5,a5,a4
    80002b48:	06f4b423          	sd	a5,104(s1)
    80002b4c:	00048513          	mv	a0,s1
    80002b50:	01813083          	ld	ra,24(sp)
    80002b54:	01013403          	ld	s0,16(sp)
    80002b58:	00813483          	ld	s1,8(sp)
    80002b5c:	00013903          	ld	s2,0(sp)
    80002b60:	02010113          	addi	sp,sp,32
    80002b64:	00008067          	ret
    80002b68:	00048513          	mv	a0,s1
    80002b6c:	00000097          	auipc	ra,0x0
    80002b70:	ea0080e7          	jalr	-352(ra) # 0x80002a0c
    80002b74:	00048513          	mv	a0,s1
    80002b78:	ffffe097          	auipc	ra,0xffffe
    80002b7c:	618080e7          	jalr	1560(ra) # 0x80001190
    80002b80:	00090493          	mv	s1,s2
    80002b84:	fc9ff06f          	j	0x80002b4c
    80002b88:	00048513          	mv	a0,s1
    80002b8c:	00000097          	auipc	ra,0x0
    80002b90:	e80080e7          	jalr	-384(ra) # 0x80002a0c
    80002b94:	00048513          	mv	a0,s1
    80002b98:	ffffe097          	auipc	ra,0xffffe
    80002b9c:	5f8080e7          	jalr	1528(ra) # 0x80001190
    80002ba0:	00090493          	mv	s1,s2
    80002ba4:	fa9ff06f          	j	0x80002b4c
    80002ba8:	fe010113          	addi	sp,sp,-32
    80002bac:	00113c23          	sd	ra,24(sp)
    80002bb0:	00813823          	sd	s0,16(sp)
    80002bb4:	00913423          	sd	s1,8(sp)
    80002bb8:	02010413          	addi	s0,sp,32
    80002bbc:	00000097          	auipc	ra,0x0
    80002bc0:	ec8080e7          	jalr	-312(ra) # 0x80002a84
    80002bc4:	00050493          	mv	s1,a0
    80002bc8:	00008797          	auipc	a5,0x8
    80002bcc:	dea7b423          	sd	a0,-536(a5) # 0x8000a9b0
    80002bd0:	00007517          	auipc	a0,0x7
    80002bd4:	73850513          	addi	a0,a0,1848 # 0x8000a308
    80002bd8:	00003097          	auipc	ra,0x3
    80002bdc:	fbc080e7          	jalr	-68(ra) # 0x80005b94
    80002be0:	14a4b823          	sd	a0,336(s1)
    80002be4:	00300793          	li	a5,3
    80002be8:	00f4ac23          	sw	a5,24(s1)
    80002bec:	00048513          	mv	a0,s1
    80002bf0:	ffffe097          	auipc	ra,0xffffe
    80002bf4:	5a0080e7          	jalr	1440(ra) # 0x80001190
    80002bf8:	01813083          	ld	ra,24(sp)
    80002bfc:	01013403          	ld	s0,16(sp)
    80002c00:	00813483          	ld	s1,8(sp)
    80002c04:	02010113          	addi	sp,sp,32
    80002c08:	00008067          	ret
    80002c0c:	fe010113          	addi	sp,sp,-32
    80002c10:	00113c23          	sd	ra,24(sp)
    80002c14:	00813823          	sd	s0,16(sp)
    80002c18:	00913423          	sd	s1,8(sp)
    80002c1c:	01213023          	sd	s2,0(sp)
    80002c20:	02010413          	addi	s0,sp,32
    80002c24:	00050913          	mv	s2,a0
    80002c28:	00000097          	auipc	ra,0x0
    80002c2c:	ad0080e7          	jalr	-1328(ra) # 0x800026f8
    80002c30:	00050493          	mv	s1,a0
    80002c34:	04853583          	ld	a1,72(a0)
    80002c38:	03204463          	bgtz	s2,0x80002c60
    80002c3c:	04094463          	bltz	s2,0x80002c84
    80002c40:	04b4b423          	sd	a1,72(s1)
    80002c44:	00000513          	li	a0,0
    80002c48:	01813083          	ld	ra,24(sp)
    80002c4c:	01013403          	ld	s0,16(sp)
    80002c50:	00813483          	ld	s1,8(sp)
    80002c54:	00013903          	ld	s2,0(sp)
    80002c58:	02010113          	addi	sp,sp,32
    80002c5c:	00008067          	ret
    80002c60:	00400693          	li	a3,4
    80002c64:	00b90633          	add	a2,s2,a1
    80002c68:	05053503          	ld	a0,80(a0)
    80002c6c:	fffff097          	auipc	ra,0xfffff
    80002c70:	04c080e7          	jalr	76(ra) # 0x80001cb8
    80002c74:	00050593          	mv	a1,a0
    80002c78:	fc0514e3          	bnez	a0,0x80002c40
    80002c7c:	fff00513          	li	a0,-1
    80002c80:	fc9ff06f          	j	0x80002c48
    80002c84:	00b90633          	add	a2,s2,a1
    80002c88:	05053503          	ld	a0,80(a0)
    80002c8c:	fffff097          	auipc	ra,0xfffff
    80002c90:	fb4080e7          	jalr	-76(ra) # 0x80001c40
    80002c94:	00050593          	mv	a1,a0
    80002c98:	fa9ff06f          	j	0x80002c40
    80002c9c:	fc010113          	addi	sp,sp,-64
    80002ca0:	02113c23          	sd	ra,56(sp)
    80002ca4:	02813823          	sd	s0,48(sp)
    80002ca8:	02913423          	sd	s1,40(sp)
    80002cac:	03213023          	sd	s2,32(sp)
    80002cb0:	01313c23          	sd	s3,24(sp)
    80002cb4:	01413823          	sd	s4,16(sp)
    80002cb8:	01513423          	sd	s5,8(sp)
    80002cbc:	04010413          	addi	s0,sp,64
    80002cc0:	00000097          	auipc	ra,0x0
    80002cc4:	a38080e7          	jalr	-1480(ra) # 0x800026f8
    80002cc8:	00050a93          	mv	s5,a0
    80002ccc:	00000097          	auipc	ra,0x0
    80002cd0:	db8080e7          	jalr	-584(ra) # 0x80002a84
    80002cd4:	16050063          	beqz	a0,0x80002e34
    80002cd8:	00050a13          	mv	s4,a0
    80002cdc:	048ab603          	ld	a2,72(s5)
    80002ce0:	05053583          	ld	a1,80(a0)
    80002ce4:	050ab503          	ld	a0,80(s5)
    80002ce8:	fffff097          	auipc	ra,0xfffff
    80002cec:	1f4080e7          	jalr	500(ra) # 0x80001edc
    80002cf0:	06054063          	bltz	a0,0x80002d50
    80002cf4:	048ab783          	ld	a5,72(s5)
    80002cf8:	04fa3423          	sd	a5,72(s4)
    80002cfc:	058ab683          	ld	a3,88(s5)
    80002d00:	00068793          	mv	a5,a3
    80002d04:	058a3703          	ld	a4,88(s4)
    80002d08:	12068693          	addi	a3,a3,288
    80002d0c:	0007b803          	ld	a6,0(a5)
    80002d10:	0087b503          	ld	a0,8(a5)
    80002d14:	0107b583          	ld	a1,16(a5)
    80002d18:	0187b603          	ld	a2,24(a5)
    80002d1c:	01073023          	sd	a6,0(a4) # 0x1000
    80002d20:	00a73423          	sd	a0,8(a4)
    80002d24:	00b73823          	sd	a1,16(a4)
    80002d28:	00c73c23          	sd	a2,24(a4)
    80002d2c:	02078793          	addi	a5,a5,32
    80002d30:	02070713          	addi	a4,a4,32
    80002d34:	fcd79ce3          	bne	a5,a3,0x80002d0c
    80002d38:	058a3783          	ld	a5,88(s4)
    80002d3c:	0607b823          	sd	zero,112(a5)
    80002d40:	0d0a8493          	addi	s1,s5,208
    80002d44:	0d0a0913          	addi	s2,s4,208
    80002d48:	150a8993          	addi	s3,s5,336
    80002d4c:	0300006f          	j	0x80002d7c
    80002d50:	000a0513          	mv	a0,s4
    80002d54:	00000097          	auipc	ra,0x0
    80002d58:	cb8080e7          	jalr	-840(ra) # 0x80002a0c
    80002d5c:	000a0513          	mv	a0,s4
    80002d60:	ffffe097          	auipc	ra,0xffffe
    80002d64:	430080e7          	jalr	1072(ra) # 0x80001190
    80002d68:	fff00913          	li	s2,-1
    80002d6c:	0a00006f          	j	0x80002e0c
    80002d70:	00848493          	addi	s1,s1,8
    80002d74:	00890913          	addi	s2,s2,8
    80002d78:	01348e63          	beq	s1,s3,0x80002d94
    80002d7c:	0004b503          	ld	a0,0(s1)
    80002d80:	fe0508e3          	beqz	a0,0x80002d70
    80002d84:	00003097          	auipc	ra,0x3
    80002d88:	730080e7          	jalr	1840(ra) # 0x800064b4
    80002d8c:	00a93023          	sd	a0,0(s2)
    80002d90:	fe1ff06f          	j	0x80002d70
    80002d94:	150ab503          	ld	a0,336(s5)
    80002d98:	00002097          	auipc	ra,0x2
    80002d9c:	0b4080e7          	jalr	180(ra) # 0x80004e4c
    80002da0:	14aa3823          	sd	a0,336(s4)
    80002da4:	01000613          	li	a2,16
    80002da8:	158a8593          	addi	a1,s5,344
    80002dac:	158a0513          	addi	a0,s4,344
    80002db0:	ffffe097          	auipc	ra,0xffffe
    80002db4:	640080e7          	jalr	1600(ra) # 0x800013f0
    80002db8:	030a2903          	lw	s2,48(s4)
    80002dbc:	000a0513          	mv	a0,s4
    80002dc0:	ffffe097          	auipc	ra,0xffffe
    80002dc4:	3d0080e7          	jalr	976(ra) # 0x80001190
    80002dc8:	00010497          	auipc	s1,0x10
    80002dcc:	d0848493          	addi	s1,s1,-760 # 0x80012ad0
    80002dd0:	00048513          	mv	a0,s1
    80002dd4:	ffffe097          	auipc	ra,0xffffe
    80002dd8:	2c4080e7          	jalr	708(ra) # 0x80001098
    80002ddc:	035a3c23          	sd	s5,56(s4)
    80002de0:	00048513          	mv	a0,s1
    80002de4:	ffffe097          	auipc	ra,0xffffe
    80002de8:	3ac080e7          	jalr	940(ra) # 0x80001190
    80002dec:	000a0513          	mv	a0,s4
    80002df0:	ffffe097          	auipc	ra,0xffffe
    80002df4:	2a8080e7          	jalr	680(ra) # 0x80001098
    80002df8:	00300793          	li	a5,3
    80002dfc:	00fa2c23          	sw	a5,24(s4)
    80002e00:	000a0513          	mv	a0,s4
    80002e04:	ffffe097          	auipc	ra,0xffffe
    80002e08:	38c080e7          	jalr	908(ra) # 0x80001190
    80002e0c:	00090513          	mv	a0,s2
    80002e10:	03813083          	ld	ra,56(sp)
    80002e14:	03013403          	ld	s0,48(sp)
    80002e18:	02813483          	ld	s1,40(sp)
    80002e1c:	02013903          	ld	s2,32(sp)
    80002e20:	01813983          	ld	s3,24(sp)
    80002e24:	01013a03          	ld	s4,16(sp)
    80002e28:	00813a83          	ld	s5,8(sp)
    80002e2c:	04010113          	addi	sp,sp,64
    80002e30:	00008067          	ret
    80002e34:	fff00913          	li	s2,-1
    80002e38:	fd5ff06f          	j	0x80002e0c
    80002e3c:	fb010113          	addi	sp,sp,-80
    80002e40:	04113423          	sd	ra,72(sp)
    80002e44:	04813023          	sd	s0,64(sp)
    80002e48:	02913c23          	sd	s1,56(sp)
    80002e4c:	03213823          	sd	s2,48(sp)
    80002e50:	03313423          	sd	s3,40(sp)
    80002e54:	03413023          	sd	s4,32(sp)
    80002e58:	01513c23          	sd	s5,24(sp)
    80002e5c:	01613823          	sd	s6,16(sp)
    80002e60:	01713423          	sd	s7,8(sp)
    80002e64:	01813023          	sd	s8,0(sp)
    80002e68:	05010413          	addi	s0,sp,80
    80002e6c:	00020793          	mv	a5,tp
    80002e70:	0007879b          	sext.w	a5,a5
    80002e74:	00779b13          	slli	s6,a5,0x7
    80002e78:	00010717          	auipc	a4,0x10
    80002e7c:	c4070713          	addi	a4,a4,-960 # 0x80012ab8
    80002e80:	01670733          	add	a4,a4,s6
    80002e84:	02073823          	sd	zero,48(a4)
    80002e88:	00010717          	auipc	a4,0x10
    80002e8c:	c6870713          	addi	a4,a4,-920 # 0x80012af0
    80002e90:	00eb0b33          	add	s6,s6,a4
    80002e94:	00400c13          	li	s8,4
    80002e98:	00779793          	slli	a5,a5,0x7
    80002e9c:	00010a17          	auipc	s4,0x10
    80002ea0:	c1ca0a13          	addi	s4,s4,-996 # 0x80012ab8
    80002ea4:	00fa0a33          	add	s4,s4,a5
    80002ea8:	00100b93          	li	s7,1
    80002eac:	00016997          	auipc	s3,0x16
    80002eb0:	a3c98993          	addi	s3,s3,-1476 # 0x800188e8
    80002eb4:	0580006f          	j	0x80002f0c
    80002eb8:	00048513          	mv	a0,s1
    80002ebc:	ffffe097          	auipc	ra,0xffffe
    80002ec0:	2d4080e7          	jalr	724(ra) # 0x80001190
    80002ec4:	16848493          	addi	s1,s1,360
    80002ec8:	03348e63          	beq	s1,s3,0x80002f04
    80002ecc:	00048513          	mv	a0,s1
    80002ed0:	ffffe097          	auipc	ra,0xffffe
    80002ed4:	1c8080e7          	jalr	456(ra) # 0x80001098
    80002ed8:	0184a783          	lw	a5,24(s1)
    80002edc:	fd279ee3          	bne	a5,s2,0x80002eb8
    80002ee0:	0184ac23          	sw	s8,24(s1)
    80002ee4:	029a3823          	sd	s1,48(s4)
    80002ee8:	06048593          	addi	a1,s1,96
    80002eec:	000b0513          	mv	a0,s6
    80002ef0:	00001097          	auipc	ra,0x1
    80002ef4:	96c080e7          	jalr	-1684(ra) # 0x8000385c
    80002ef8:	020a3823          	sd	zero,48(s4)
    80002efc:	000b8a93          	mv	s5,s7
    80002f00:	fb9ff06f          	j	0x80002eb8
    80002f04:	000a9463          	bnez	s5,0x80002f0c
    80002f08:	10500073          	wfi
    80002f0c:	100027f3          	csrr	a5,sstatus
    80002f10:	0027e793          	ori	a5,a5,2
    80002f14:	10079073          	csrw	sstatus,a5
    80002f18:	100027f3          	csrr	a5,sstatus
    80002f1c:	ffd7f793          	andi	a5,a5,-3
    80002f20:	10079073          	csrw	sstatus,a5
    80002f24:	00000a93          	li	s5,0
    80002f28:	00010497          	auipc	s1,0x10
    80002f2c:	fc048493          	addi	s1,s1,-64 # 0x80012ee8
    80002f30:	00300913          	li	s2,3
    80002f34:	f99ff06f          	j	0x80002ecc
    80002f38:	fd010113          	addi	sp,sp,-48
    80002f3c:	02113423          	sd	ra,40(sp)
    80002f40:	02813023          	sd	s0,32(sp)
    80002f44:	00913c23          	sd	s1,24(sp)
    80002f48:	01213823          	sd	s2,16(sp)
    80002f4c:	01313423          	sd	s3,8(sp)
    80002f50:	03010413          	addi	s0,sp,48
    80002f54:	fffff097          	auipc	ra,0xfffff
    80002f58:	7a4080e7          	jalr	1956(ra) # 0x800026f8
    80002f5c:	00050493          	mv	s1,a0
    80002f60:	ffffe097          	auipc	ra,0xffffe
    80002f64:	078080e7          	jalr	120(ra) # 0x80000fd8
    80002f68:	0a050863          	beqz	a0,0x80003018
    80002f6c:	00020793          	mv	a5,tp
    80002f70:	0007879b          	sext.w	a5,a5
    80002f74:	00779793          	slli	a5,a5,0x7
    80002f78:	00010717          	auipc	a4,0x10
    80002f7c:	b4070713          	addi	a4,a4,-1216 # 0x80012ab8
    80002f80:	00f707b3          	add	a5,a4,a5
    80002f84:	0a87a703          	lw	a4,168(a5)
    80002f88:	00100793          	li	a5,1
    80002f8c:	08f71e63          	bne	a4,a5,0x80003028
    80002f90:	0184a703          	lw	a4,24(s1)
    80002f94:	00400793          	li	a5,4
    80002f98:	0af70063          	beq	a4,a5,0x80003038
    80002f9c:	100027f3          	csrr	a5,sstatus
    80002fa0:	0027f793          	andi	a5,a5,2
    80002fa4:	0a079263          	bnez	a5,0x80003048
    80002fa8:	00020793          	mv	a5,tp
    80002fac:	00010917          	auipc	s2,0x10
    80002fb0:	b0c90913          	addi	s2,s2,-1268 # 0x80012ab8
    80002fb4:	0007879b          	sext.w	a5,a5
    80002fb8:	00779793          	slli	a5,a5,0x7
    80002fbc:	00f907b3          	add	a5,s2,a5
    80002fc0:	0ac7a983          	lw	s3,172(a5)
    80002fc4:	00020793          	mv	a5,tp
    80002fc8:	0007879b          	sext.w	a5,a5
    80002fcc:	00779793          	slli	a5,a5,0x7
    80002fd0:	00010597          	auipc	a1,0x10
    80002fd4:	b2058593          	addi	a1,a1,-1248 # 0x80012af0
    80002fd8:	00b785b3          	add	a1,a5,a1
    80002fdc:	06048513          	addi	a0,s1,96
    80002fe0:	00001097          	auipc	ra,0x1
    80002fe4:	87c080e7          	jalr	-1924(ra) # 0x8000385c
    80002fe8:	00020793          	mv	a5,tp
    80002fec:	0007879b          	sext.w	a5,a5
    80002ff0:	00779793          	slli	a5,a5,0x7
    80002ff4:	00f90933          	add	s2,s2,a5
    80002ff8:	0b392623          	sw	s3,172(s2)
    80002ffc:	02813083          	ld	ra,40(sp)
    80003000:	02013403          	ld	s0,32(sp)
    80003004:	01813483          	ld	s1,24(sp)
    80003008:	01013903          	ld	s2,16(sp)
    8000300c:	00813983          	ld	s3,8(sp)
    80003010:	03010113          	addi	sp,sp,48
    80003014:	00008067          	ret
    80003018:	00007517          	auipc	a0,0x7
    8000301c:	2f850513          	addi	a0,a0,760 # 0x8000a310
    80003020:	ffffe097          	auipc	ra,0xffffe
    80003024:	a60080e7          	jalr	-1440(ra) # 0x80000a80
    80003028:	00007517          	auipc	a0,0x7
    8000302c:	2f850513          	addi	a0,a0,760 # 0x8000a320
    80003030:	ffffe097          	auipc	ra,0xffffe
    80003034:	a50080e7          	jalr	-1456(ra) # 0x80000a80
    80003038:	00007517          	auipc	a0,0x7
    8000303c:	2f850513          	addi	a0,a0,760 # 0x8000a330
    80003040:	ffffe097          	auipc	ra,0xffffe
    80003044:	a40080e7          	jalr	-1472(ra) # 0x80000a80
    80003048:	00007517          	auipc	a0,0x7
    8000304c:	2f850513          	addi	a0,a0,760 # 0x8000a340
    80003050:	ffffe097          	auipc	ra,0xffffe
    80003054:	a30080e7          	jalr	-1488(ra) # 0x80000a80
    80003058:	fe010113          	addi	sp,sp,-32
    8000305c:	00113c23          	sd	ra,24(sp)
    80003060:	00813823          	sd	s0,16(sp)
    80003064:	00913423          	sd	s1,8(sp)
    80003068:	02010413          	addi	s0,sp,32
    8000306c:	fffff097          	auipc	ra,0xfffff
    80003070:	68c080e7          	jalr	1676(ra) # 0x800026f8
    80003074:	00050493          	mv	s1,a0
    80003078:	ffffe097          	auipc	ra,0xffffe
    8000307c:	020080e7          	jalr	32(ra) # 0x80001098
    80003080:	00300793          	li	a5,3
    80003084:	00f4ac23          	sw	a5,24(s1)
    80003088:	00000097          	auipc	ra,0x0
    8000308c:	eb0080e7          	jalr	-336(ra) # 0x80002f38
    80003090:	00048513          	mv	a0,s1
    80003094:	ffffe097          	auipc	ra,0xffffe
    80003098:	0fc080e7          	jalr	252(ra) # 0x80001190
    8000309c:	01813083          	ld	ra,24(sp)
    800030a0:	01013403          	ld	s0,16(sp)
    800030a4:	00813483          	ld	s1,8(sp)
    800030a8:	02010113          	addi	sp,sp,32
    800030ac:	00008067          	ret
    800030b0:	fd010113          	addi	sp,sp,-48
    800030b4:	02113423          	sd	ra,40(sp)
    800030b8:	02813023          	sd	s0,32(sp)
    800030bc:	00913c23          	sd	s1,24(sp)
    800030c0:	01213823          	sd	s2,16(sp)
    800030c4:	01313423          	sd	s3,8(sp)
    800030c8:	03010413          	addi	s0,sp,48
    800030cc:	00050993          	mv	s3,a0
    800030d0:	00058913          	mv	s2,a1
    800030d4:	fffff097          	auipc	ra,0xfffff
    800030d8:	624080e7          	jalr	1572(ra) # 0x800026f8
    800030dc:	00050493          	mv	s1,a0
    800030e0:	ffffe097          	auipc	ra,0xffffe
    800030e4:	fb8080e7          	jalr	-72(ra) # 0x80001098
    800030e8:	00090513          	mv	a0,s2
    800030ec:	ffffe097          	auipc	ra,0xffffe
    800030f0:	0a4080e7          	jalr	164(ra) # 0x80001190
    800030f4:	0334b023          	sd	s3,32(s1)
    800030f8:	00200793          	li	a5,2
    800030fc:	00f4ac23          	sw	a5,24(s1)
    80003100:	00000097          	auipc	ra,0x0
    80003104:	e38080e7          	jalr	-456(ra) # 0x80002f38
    80003108:	0204b023          	sd	zero,32(s1)
    8000310c:	00048513          	mv	a0,s1
    80003110:	ffffe097          	auipc	ra,0xffffe
    80003114:	080080e7          	jalr	128(ra) # 0x80001190
    80003118:	00090513          	mv	a0,s2
    8000311c:	ffffe097          	auipc	ra,0xffffe
    80003120:	f7c080e7          	jalr	-132(ra) # 0x80001098
    80003124:	02813083          	ld	ra,40(sp)
    80003128:	02013403          	ld	s0,32(sp)
    8000312c:	01813483          	ld	s1,24(sp)
    80003130:	01013903          	ld	s2,16(sp)
    80003134:	00813983          	ld	s3,8(sp)
    80003138:	03010113          	addi	sp,sp,48
    8000313c:	00008067          	ret
    80003140:	fc010113          	addi	sp,sp,-64
    80003144:	02113c23          	sd	ra,56(sp)
    80003148:	02813823          	sd	s0,48(sp)
    8000314c:	02913423          	sd	s1,40(sp)
    80003150:	03213023          	sd	s2,32(sp)
    80003154:	01313c23          	sd	s3,24(sp)
    80003158:	01413823          	sd	s4,16(sp)
    8000315c:	01513423          	sd	s5,8(sp)
    80003160:	04010413          	addi	s0,sp,64
    80003164:	00050a13          	mv	s4,a0
    80003168:	00010497          	auipc	s1,0x10
    8000316c:	d8048493          	addi	s1,s1,-640 # 0x80012ee8
    80003170:	00200993          	li	s3,2
    80003174:	00300a93          	li	s5,3
    80003178:	00015917          	auipc	s2,0x15
    8000317c:	77090913          	addi	s2,s2,1904 # 0x800188e8
    80003180:	0180006f          	j	0x80003198
    80003184:	00048513          	mv	a0,s1
    80003188:	ffffe097          	auipc	ra,0xffffe
    8000318c:	008080e7          	jalr	8(ra) # 0x80001190
    80003190:	16848493          	addi	s1,s1,360
    80003194:	03248a63          	beq	s1,s2,0x800031c8
    80003198:	fffff097          	auipc	ra,0xfffff
    8000319c:	560080e7          	jalr	1376(ra) # 0x800026f8
    800031a0:	fea488e3          	beq	s1,a0,0x80003190
    800031a4:	00048513          	mv	a0,s1
    800031a8:	ffffe097          	auipc	ra,0xffffe
    800031ac:	ef0080e7          	jalr	-272(ra) # 0x80001098
    800031b0:	0184a783          	lw	a5,24(s1)
    800031b4:	fd3798e3          	bne	a5,s3,0x80003184
    800031b8:	0204b783          	ld	a5,32(s1)
    800031bc:	fd4794e3          	bne	a5,s4,0x80003184
    800031c0:	0154ac23          	sw	s5,24(s1)
    800031c4:	fc1ff06f          	j	0x80003184
    800031c8:	03813083          	ld	ra,56(sp)
    800031cc:	03013403          	ld	s0,48(sp)
    800031d0:	02813483          	ld	s1,40(sp)
    800031d4:	02013903          	ld	s2,32(sp)
    800031d8:	01813983          	ld	s3,24(sp)
    800031dc:	01013a03          	ld	s4,16(sp)
    800031e0:	00813a83          	ld	s5,8(sp)
    800031e4:	04010113          	addi	sp,sp,64
    800031e8:	00008067          	ret
    800031ec:	fd010113          	addi	sp,sp,-48
    800031f0:	02113423          	sd	ra,40(sp)
    800031f4:	02813023          	sd	s0,32(sp)
    800031f8:	00913c23          	sd	s1,24(sp)
    800031fc:	01213823          	sd	s2,16(sp)
    80003200:	01313423          	sd	s3,8(sp)
    80003204:	01413023          	sd	s4,0(sp)
    80003208:	03010413          	addi	s0,sp,48
    8000320c:	00050913          	mv	s2,a0
    80003210:	00010497          	auipc	s1,0x10
    80003214:	cd848493          	addi	s1,s1,-808 # 0x80012ee8
    80003218:	00007a17          	auipc	s4,0x7
    8000321c:	798a0a13          	addi	s4,s4,1944 # 0x8000a9b0
    80003220:	00015997          	auipc	s3,0x15
    80003224:	6c898993          	addi	s3,s3,1736 # 0x800188e8
    80003228:	00c0006f          	j	0x80003234
    8000322c:	16848493          	addi	s1,s1,360
    80003230:	03348063          	beq	s1,s3,0x80003250
    80003234:	0384b783          	ld	a5,56(s1)
    80003238:	ff279ae3          	bne	a5,s2,0x8000322c
    8000323c:	000a3503          	ld	a0,0(s4)
    80003240:	02a4bc23          	sd	a0,56(s1)
    80003244:	00000097          	auipc	ra,0x0
    80003248:	efc080e7          	jalr	-260(ra) # 0x80003140
    8000324c:	fe1ff06f          	j	0x8000322c
    80003250:	02813083          	ld	ra,40(sp)
    80003254:	02013403          	ld	s0,32(sp)
    80003258:	01813483          	ld	s1,24(sp)
    8000325c:	01013903          	ld	s2,16(sp)
    80003260:	00813983          	ld	s3,8(sp)
    80003264:	00013a03          	ld	s4,0(sp)
    80003268:	03010113          	addi	sp,sp,48
    8000326c:	00008067          	ret
    80003270:	fd010113          	addi	sp,sp,-48
    80003274:	02113423          	sd	ra,40(sp)
    80003278:	02813023          	sd	s0,32(sp)
    8000327c:	00913c23          	sd	s1,24(sp)
    80003280:	01213823          	sd	s2,16(sp)
    80003284:	01313423          	sd	s3,8(sp)
    80003288:	01413023          	sd	s4,0(sp)
    8000328c:	03010413          	addi	s0,sp,48
    80003290:	00050a13          	mv	s4,a0
    80003294:	fffff097          	auipc	ra,0xfffff
    80003298:	464080e7          	jalr	1124(ra) # 0x800026f8
    8000329c:	00050993          	mv	s3,a0
    800032a0:	00007797          	auipc	a5,0x7
    800032a4:	7107b783          	ld	a5,1808(a5) # 0x8000a9b0
    800032a8:	0d050493          	addi	s1,a0,208
    800032ac:	15050913          	addi	s2,a0,336
    800032b0:	02a79463          	bne	a5,a0,0x800032d8
    800032b4:	00007517          	auipc	a0,0x7
    800032b8:	0a450513          	addi	a0,a0,164 # 0x8000a358
    800032bc:	ffffd097          	auipc	ra,0xffffd
    800032c0:	7c4080e7          	jalr	1988(ra) # 0x80000a80
    800032c4:	00003097          	auipc	ra,0x3
    800032c8:	260080e7          	jalr	608(ra) # 0x80006524
    800032cc:	0004b023          	sd	zero,0(s1)
    800032d0:	00848493          	addi	s1,s1,8
    800032d4:	01248863          	beq	s1,s2,0x800032e4
    800032d8:	0004b503          	ld	a0,0(s1)
    800032dc:	fe0514e3          	bnez	a0,0x800032c4
    800032e0:	ff1ff06f          	j	0x800032d0
    800032e4:	00003097          	auipc	ra,0x3
    800032e8:	bc4080e7          	jalr	-1084(ra) # 0x80005ea8
    800032ec:	1509b503          	ld	a0,336(s3)
    800032f0:	00002097          	auipc	ra,0x2
    800032f4:	e18080e7          	jalr	-488(ra) # 0x80005108
    800032f8:	00003097          	auipc	ra,0x3
    800032fc:	c64080e7          	jalr	-924(ra) # 0x80005f5c
    80003300:	1409b823          	sd	zero,336(s3)
    80003304:	0000f497          	auipc	s1,0xf
    80003308:	7cc48493          	addi	s1,s1,1996 # 0x80012ad0
    8000330c:	00048513          	mv	a0,s1
    80003310:	ffffe097          	auipc	ra,0xffffe
    80003314:	d88080e7          	jalr	-632(ra) # 0x80001098
    80003318:	00098513          	mv	a0,s3
    8000331c:	00000097          	auipc	ra,0x0
    80003320:	ed0080e7          	jalr	-304(ra) # 0x800031ec
    80003324:	0389b503          	ld	a0,56(s3)
    80003328:	00000097          	auipc	ra,0x0
    8000332c:	e18080e7          	jalr	-488(ra) # 0x80003140
    80003330:	00098513          	mv	a0,s3
    80003334:	ffffe097          	auipc	ra,0xffffe
    80003338:	d64080e7          	jalr	-668(ra) # 0x80001098
    8000333c:	0349a623          	sw	s4,44(s3)
    80003340:	00500793          	li	a5,5
    80003344:	00f9ac23          	sw	a5,24(s3)
    80003348:	00048513          	mv	a0,s1
    8000334c:	ffffe097          	auipc	ra,0xffffe
    80003350:	e44080e7          	jalr	-444(ra) # 0x80001190
    80003354:	00000097          	auipc	ra,0x0
    80003358:	be4080e7          	jalr	-1052(ra) # 0x80002f38
    8000335c:	00007517          	auipc	a0,0x7
    80003360:	00c50513          	addi	a0,a0,12 # 0x8000a368
    80003364:	ffffd097          	auipc	ra,0xffffd
    80003368:	71c080e7          	jalr	1820(ra) # 0x80000a80
    8000336c:	fd010113          	addi	sp,sp,-48
    80003370:	02113423          	sd	ra,40(sp)
    80003374:	02813023          	sd	s0,32(sp)
    80003378:	00913c23          	sd	s1,24(sp)
    8000337c:	01213823          	sd	s2,16(sp)
    80003380:	01313423          	sd	s3,8(sp)
    80003384:	03010413          	addi	s0,sp,48
    80003388:	00050913          	mv	s2,a0
    8000338c:	00010497          	auipc	s1,0x10
    80003390:	b5c48493          	addi	s1,s1,-1188 # 0x80012ee8
    80003394:	00015997          	auipc	s3,0x15
    80003398:	55498993          	addi	s3,s3,1364 # 0x800188e8
    8000339c:	00048513          	mv	a0,s1
    800033a0:	ffffe097          	auipc	ra,0xffffe
    800033a4:	cf8080e7          	jalr	-776(ra) # 0x80001098
    800033a8:	0304a783          	lw	a5,48(s1)
    800033ac:	03278063          	beq	a5,s2,0x800033cc
    800033b0:	00048513          	mv	a0,s1
    800033b4:	ffffe097          	auipc	ra,0xffffe
    800033b8:	ddc080e7          	jalr	-548(ra) # 0x80001190
    800033bc:	16848493          	addi	s1,s1,360
    800033c0:	fd349ee3          	bne	s1,s3,0x8000339c
    800033c4:	fff00513          	li	a0,-1
    800033c8:	0280006f          	j	0x800033f0
    800033cc:	00100793          	li	a5,1
    800033d0:	02f4a423          	sw	a5,40(s1)
    800033d4:	0184a703          	lw	a4,24(s1)
    800033d8:	00200793          	li	a5,2
    800033dc:	02f70863          	beq	a4,a5,0x8000340c
    800033e0:	00048513          	mv	a0,s1
    800033e4:	ffffe097          	auipc	ra,0xffffe
    800033e8:	dac080e7          	jalr	-596(ra) # 0x80001190
    800033ec:	00000513          	li	a0,0
    800033f0:	02813083          	ld	ra,40(sp)
    800033f4:	02013403          	ld	s0,32(sp)
    800033f8:	01813483          	ld	s1,24(sp)
    800033fc:	01013903          	ld	s2,16(sp)
    80003400:	00813983          	ld	s3,8(sp)
    80003404:	03010113          	addi	sp,sp,48
    80003408:	00008067          	ret
    8000340c:	00300793          	li	a5,3
    80003410:	00f4ac23          	sw	a5,24(s1)
    80003414:	fcdff06f          	j	0x800033e0
    80003418:	fe010113          	addi	sp,sp,-32
    8000341c:	00113c23          	sd	ra,24(sp)
    80003420:	00813823          	sd	s0,16(sp)
    80003424:	00913423          	sd	s1,8(sp)
    80003428:	02010413          	addi	s0,sp,32
    8000342c:	00050493          	mv	s1,a0
    80003430:	ffffe097          	auipc	ra,0xffffe
    80003434:	c68080e7          	jalr	-920(ra) # 0x80001098
    80003438:	00100793          	li	a5,1
    8000343c:	02f4a423          	sw	a5,40(s1)
    80003440:	00048513          	mv	a0,s1
    80003444:	ffffe097          	auipc	ra,0xffffe
    80003448:	d4c080e7          	jalr	-692(ra) # 0x80001190
    8000344c:	01813083          	ld	ra,24(sp)
    80003450:	01013403          	ld	s0,16(sp)
    80003454:	00813483          	ld	s1,8(sp)
    80003458:	02010113          	addi	sp,sp,32
    8000345c:	00008067          	ret
    80003460:	fe010113          	addi	sp,sp,-32
    80003464:	00113c23          	sd	ra,24(sp)
    80003468:	00813823          	sd	s0,16(sp)
    8000346c:	00913423          	sd	s1,8(sp)
    80003470:	01213023          	sd	s2,0(sp)
    80003474:	02010413          	addi	s0,sp,32
    80003478:	00050493          	mv	s1,a0
    8000347c:	ffffe097          	auipc	ra,0xffffe
    80003480:	c1c080e7          	jalr	-996(ra) # 0x80001098
    80003484:	0284a903          	lw	s2,40(s1)
    80003488:	00048513          	mv	a0,s1
    8000348c:	ffffe097          	auipc	ra,0xffffe
    80003490:	d04080e7          	jalr	-764(ra) # 0x80001190
    80003494:	00090513          	mv	a0,s2
    80003498:	01813083          	ld	ra,24(sp)
    8000349c:	01013403          	ld	s0,16(sp)
    800034a0:	00813483          	ld	s1,8(sp)
    800034a4:	00013903          	ld	s2,0(sp)
    800034a8:	02010113          	addi	sp,sp,32
    800034ac:	00008067          	ret
    800034b0:	fb010113          	addi	sp,sp,-80
    800034b4:	04113423          	sd	ra,72(sp)
    800034b8:	04813023          	sd	s0,64(sp)
    800034bc:	02913c23          	sd	s1,56(sp)
    800034c0:	03213823          	sd	s2,48(sp)
    800034c4:	03313423          	sd	s3,40(sp)
    800034c8:	03413023          	sd	s4,32(sp)
    800034cc:	01513c23          	sd	s5,24(sp)
    800034d0:	01613823          	sd	s6,16(sp)
    800034d4:	01713423          	sd	s7,8(sp)
    800034d8:	01813023          	sd	s8,0(sp)
    800034dc:	05010413          	addi	s0,sp,80
    800034e0:	00050b13          	mv	s6,a0
    800034e4:	fffff097          	auipc	ra,0xfffff
    800034e8:	214080e7          	jalr	532(ra) # 0x800026f8
    800034ec:	00050913          	mv	s2,a0
    800034f0:	0000f517          	auipc	a0,0xf
    800034f4:	5e050513          	addi	a0,a0,1504 # 0x80012ad0
    800034f8:	ffffe097          	auipc	ra,0xffffe
    800034fc:	ba0080e7          	jalr	-1120(ra) # 0x80001098
    80003500:	00000b93          	li	s7,0
    80003504:	00500a13          	li	s4,5
    80003508:	00100a93          	li	s5,1
    8000350c:	00015997          	auipc	s3,0x15
    80003510:	3dc98993          	addi	s3,s3,988 # 0x800188e8
    80003514:	0000fc17          	auipc	s8,0xf
    80003518:	5bcc0c13          	addi	s8,s8,1468 # 0x80012ad0
    8000351c:	000b8713          	mv	a4,s7
    80003520:	00010497          	auipc	s1,0x10
    80003524:	9c848493          	addi	s1,s1,-1592 # 0x80012ee8
    80003528:	0800006f          	j	0x800035a8
    8000352c:	0304a983          	lw	s3,48(s1)
    80003530:	020b0063          	beqz	s6,0x80003550
    80003534:	00400693          	li	a3,4
    80003538:	02c48613          	addi	a2,s1,44
    8000353c:	000b0593          	mv	a1,s6
    80003540:	05093503          	ld	a0,80(s2)
    80003544:	fffff097          	auipc	ra,0xfffff
    80003548:	d40080e7          	jalr	-704(ra) # 0x80002284
    8000354c:	02054863          	bltz	a0,0x8000357c
    80003550:	00048513          	mv	a0,s1
    80003554:	fffff097          	auipc	ra,0xfffff
    80003558:	4b8080e7          	jalr	1208(ra) # 0x80002a0c
    8000355c:	00048513          	mv	a0,s1
    80003560:	ffffe097          	auipc	ra,0xffffe
    80003564:	c30080e7          	jalr	-976(ra) # 0x80001190
    80003568:	0000f517          	auipc	a0,0xf
    8000356c:	56850513          	addi	a0,a0,1384 # 0x80012ad0
    80003570:	ffffe097          	auipc	ra,0xffffe
    80003574:	c20080e7          	jalr	-992(ra) # 0x80001190
    80003578:	0880006f          	j	0x80003600
    8000357c:	00048513          	mv	a0,s1
    80003580:	ffffe097          	auipc	ra,0xffffe
    80003584:	c10080e7          	jalr	-1008(ra) # 0x80001190
    80003588:	0000f517          	auipc	a0,0xf
    8000358c:	54850513          	addi	a0,a0,1352 # 0x80012ad0
    80003590:	ffffe097          	auipc	ra,0xffffe
    80003594:	c00080e7          	jalr	-1024(ra) # 0x80001190
    80003598:	fff00993          	li	s3,-1
    8000359c:	0640006f          	j	0x80003600
    800035a0:	16848493          	addi	s1,s1,360
    800035a4:	03348a63          	beq	s1,s3,0x800035d8
    800035a8:	0384b783          	ld	a5,56(s1)
    800035ac:	ff279ae3          	bne	a5,s2,0x800035a0
    800035b0:	00048513          	mv	a0,s1
    800035b4:	ffffe097          	auipc	ra,0xffffe
    800035b8:	ae4080e7          	jalr	-1308(ra) # 0x80001098
    800035bc:	0184a783          	lw	a5,24(s1)
    800035c0:	f74786e3          	beq	a5,s4,0x8000352c
    800035c4:	00048513          	mv	a0,s1
    800035c8:	ffffe097          	auipc	ra,0xffffe
    800035cc:	bc8080e7          	jalr	-1080(ra) # 0x80001190
    800035d0:	000a8713          	mv	a4,s5
    800035d4:	fcdff06f          	j	0x800035a0
    800035d8:	00070a63          	beqz	a4,0x800035ec
    800035dc:	00090513          	mv	a0,s2
    800035e0:	00000097          	auipc	ra,0x0
    800035e4:	e80080e7          	jalr	-384(ra) # 0x80003460
    800035e8:	04050663          	beqz	a0,0x80003634
    800035ec:	0000f517          	auipc	a0,0xf
    800035f0:	4e450513          	addi	a0,a0,1252 # 0x80012ad0
    800035f4:	ffffe097          	auipc	ra,0xffffe
    800035f8:	b9c080e7          	jalr	-1124(ra) # 0x80001190
    800035fc:	fff00993          	li	s3,-1
    80003600:	00098513          	mv	a0,s3
    80003604:	04813083          	ld	ra,72(sp)
    80003608:	04013403          	ld	s0,64(sp)
    8000360c:	03813483          	ld	s1,56(sp)
    80003610:	03013903          	ld	s2,48(sp)
    80003614:	02813983          	ld	s3,40(sp)
    80003618:	02013a03          	ld	s4,32(sp)
    8000361c:	01813a83          	ld	s5,24(sp)
    80003620:	01013b03          	ld	s6,16(sp)
    80003624:	00813b83          	ld	s7,8(sp)
    80003628:	00013c03          	ld	s8,0(sp)
    8000362c:	05010113          	addi	sp,sp,80
    80003630:	00008067          	ret
    80003634:	000c0593          	mv	a1,s8
    80003638:	00090513          	mv	a0,s2
    8000363c:	00000097          	auipc	ra,0x0
    80003640:	a74080e7          	jalr	-1420(ra) # 0x800030b0
    80003644:	ed9ff06f          	j	0x8000351c
    80003648:	fd010113          	addi	sp,sp,-48
    8000364c:	02113423          	sd	ra,40(sp)
    80003650:	02813023          	sd	s0,32(sp)
    80003654:	00913c23          	sd	s1,24(sp)
    80003658:	01213823          	sd	s2,16(sp)
    8000365c:	01313423          	sd	s3,8(sp)
    80003660:	01413023          	sd	s4,0(sp)
    80003664:	03010413          	addi	s0,sp,48
    80003668:	00050493          	mv	s1,a0
    8000366c:	00058913          	mv	s2,a1
    80003670:	00060993          	mv	s3,a2
    80003674:	00068a13          	mv	s4,a3
    80003678:	fffff097          	auipc	ra,0xfffff
    8000367c:	080080e7          	jalr	128(ra) # 0x800026f8
    80003680:	02048e63          	beqz	s1,0x800036bc
    80003684:	000a0693          	mv	a3,s4
    80003688:	00098613          	mv	a2,s3
    8000368c:	00090593          	mv	a1,s2
    80003690:	05053503          	ld	a0,80(a0)
    80003694:	fffff097          	auipc	ra,0xfffff
    80003698:	bf0080e7          	jalr	-1040(ra) # 0x80002284
    8000369c:	02813083          	ld	ra,40(sp)
    800036a0:	02013403          	ld	s0,32(sp)
    800036a4:	01813483          	ld	s1,24(sp)
    800036a8:	01013903          	ld	s2,16(sp)
    800036ac:	00813983          	ld	s3,8(sp)
    800036b0:	00013a03          	ld	s4,0(sp)
    800036b4:	03010113          	addi	sp,sp,48
    800036b8:	00008067          	ret
    800036bc:	000a061b          	sext.w	a2,s4
    800036c0:	00098593          	mv	a1,s3
    800036c4:	00090513          	mv	a0,s2
    800036c8:	ffffe097          	auipc	ra,0xffffe
    800036cc:	bbc080e7          	jalr	-1092(ra) # 0x80001284
    800036d0:	00048513          	mv	a0,s1
    800036d4:	fc9ff06f          	j	0x8000369c
    800036d8:	fd010113          	addi	sp,sp,-48
    800036dc:	02113423          	sd	ra,40(sp)
    800036e0:	02813023          	sd	s0,32(sp)
    800036e4:	00913c23          	sd	s1,24(sp)
    800036e8:	01213823          	sd	s2,16(sp)
    800036ec:	01313423          	sd	s3,8(sp)
    800036f0:	01413023          	sd	s4,0(sp)
    800036f4:	03010413          	addi	s0,sp,48
    800036f8:	00050913          	mv	s2,a0
    800036fc:	00058493          	mv	s1,a1
    80003700:	00060993          	mv	s3,a2
    80003704:	00068a13          	mv	s4,a3
    80003708:	fffff097          	auipc	ra,0xfffff
    8000370c:	ff0080e7          	jalr	-16(ra) # 0x800026f8
    80003710:	02048e63          	beqz	s1,0x8000374c
    80003714:	000a0693          	mv	a3,s4
    80003718:	00098613          	mv	a2,s3
    8000371c:	00090593          	mv	a1,s2
    80003720:	05053503          	ld	a0,80(a0)
    80003724:	fffff097          	auipc	ra,0xfffff
    80003728:	cc8080e7          	jalr	-824(ra) # 0x800023ec
    8000372c:	02813083          	ld	ra,40(sp)
    80003730:	02013403          	ld	s0,32(sp)
    80003734:	01813483          	ld	s1,24(sp)
    80003738:	01013903          	ld	s2,16(sp)
    8000373c:	00813983          	ld	s3,8(sp)
    80003740:	00013a03          	ld	s4,0(sp)
    80003744:	03010113          	addi	sp,sp,48
    80003748:	00008067          	ret
    8000374c:	000a061b          	sext.w	a2,s4
    80003750:	00098593          	mv	a1,s3
    80003754:	00090513          	mv	a0,s2
    80003758:	ffffe097          	auipc	ra,0xffffe
    8000375c:	b2c080e7          	jalr	-1236(ra) # 0x80001284
    80003760:	00048513          	mv	a0,s1
    80003764:	fc9ff06f          	j	0x8000372c
    80003768:	fb010113          	addi	sp,sp,-80
    8000376c:	04113423          	sd	ra,72(sp)
    80003770:	04813023          	sd	s0,64(sp)
    80003774:	02913c23          	sd	s1,56(sp)
    80003778:	03213823          	sd	s2,48(sp)
    8000377c:	03313423          	sd	s3,40(sp)
    80003780:	03413023          	sd	s4,32(sp)
    80003784:	01513c23          	sd	s5,24(sp)
    80003788:	01613823          	sd	s6,16(sp)
    8000378c:	01713423          	sd	s7,8(sp)
    80003790:	05010413          	addi	s0,sp,80
    80003794:	00007517          	auipc	a0,0x7
    80003798:	a7c50513          	addi	a0,a0,-1412 # 0x8000a210
    8000379c:	ffffd097          	auipc	ra,0xffffd
    800037a0:	f0c080e7          	jalr	-244(ra) # 0x800006a8
    800037a4:	00010497          	auipc	s1,0x10
    800037a8:	89c48493          	addi	s1,s1,-1892 # 0x80013040
    800037ac:	00015917          	auipc	s2,0x15
    800037b0:	29490913          	addi	s2,s2,660 # 0x80018a40
    800037b4:	00500b13          	li	s6,5
    800037b8:	00007997          	auipc	s3,0x7
    800037bc:	bc098993          	addi	s3,s3,-1088 # 0x8000a378
    800037c0:	00007a97          	auipc	s5,0x7
    800037c4:	bc0a8a93          	addi	s5,s5,-1088 # 0x8000a380
    800037c8:	00007a17          	auipc	s4,0x7
    800037cc:	a48a0a13          	addi	s4,s4,-1464 # 0x8000a210
    800037d0:	00007b97          	auipc	s7,0x7
    800037d4:	bf0b8b93          	addi	s7,s7,-1040 # 0x8000a3c0
    800037d8:	0280006f          	j	0x80003800
    800037dc:	ed86a583          	lw	a1,-296(a3)
    800037e0:	000a8513          	mv	a0,s5
    800037e4:	ffffd097          	auipc	ra,0xffffd
    800037e8:	ec4080e7          	jalr	-316(ra) # 0x800006a8
    800037ec:	000a0513          	mv	a0,s4
    800037f0:	ffffd097          	auipc	ra,0xffffd
    800037f4:	eb8080e7          	jalr	-328(ra) # 0x800006a8
    800037f8:	16848493          	addi	s1,s1,360
    800037fc:	03248a63          	beq	s1,s2,0x80003830
    80003800:	00048693          	mv	a3,s1
    80003804:	ec04a783          	lw	a5,-320(s1)
    80003808:	fe0788e3          	beqz	a5,0x800037f8
    8000380c:	00098613          	mv	a2,s3
    80003810:	fcfb66e3          	bltu	s6,a5,0x800037dc
    80003814:	02079713          	slli	a4,a5,0x20
    80003818:	01d75793          	srli	a5,a4,0x1d
    8000381c:	00fb87b3          	add	a5,s7,a5
    80003820:	0007b603          	ld	a2,0(a5)
    80003824:	fa061ce3          	bnez	a2,0x800037dc
    80003828:	00098613          	mv	a2,s3
    8000382c:	fb1ff06f          	j	0x800037dc
    80003830:	04813083          	ld	ra,72(sp)
    80003834:	04013403          	ld	s0,64(sp)
    80003838:	03813483          	ld	s1,56(sp)
    8000383c:	03013903          	ld	s2,48(sp)
    80003840:	02813983          	ld	s3,40(sp)
    80003844:	02013a03          	ld	s4,32(sp)
    80003848:	01813a83          	ld	s5,24(sp)
    8000384c:	01013b03          	ld	s6,16(sp)
    80003850:	00813b83          	ld	s7,8(sp)
    80003854:	05010113          	addi	sp,sp,80
    80003858:	00008067          	ret
    8000385c:	00153023          	sd	ra,0(a0)
    80003860:	00253423          	sd	sp,8(a0)
    80003864:	00853823          	sd	s0,16(a0)
    80003868:	00953c23          	sd	s1,24(a0)
    8000386c:	03253023          	sd	s2,32(a0)
    80003870:	03353423          	sd	s3,40(a0)
    80003874:	03453823          	sd	s4,48(a0)
    80003878:	03553c23          	sd	s5,56(a0)
    8000387c:	05653023          	sd	s6,64(a0)
    80003880:	05753423          	sd	s7,72(a0)
    80003884:	05853823          	sd	s8,80(a0)
    80003888:	05953c23          	sd	s9,88(a0)
    8000388c:	07a53023          	sd	s10,96(a0)
    80003890:	07b53423          	sd	s11,104(a0)
    80003894:	0005b083          	ld	ra,0(a1)
    80003898:	0085b103          	ld	sp,8(a1)
    8000389c:	0105b403          	ld	s0,16(a1)
    800038a0:	0185b483          	ld	s1,24(a1)
    800038a4:	0205b903          	ld	s2,32(a1)
    800038a8:	0285b983          	ld	s3,40(a1)
    800038ac:	0305ba03          	ld	s4,48(a1)
    800038b0:	0385ba83          	ld	s5,56(a1)
    800038b4:	0405bb03          	ld	s6,64(a1)
    800038b8:	0485bb83          	ld	s7,72(a1)
    800038bc:	0505bc03          	ld	s8,80(a1)
    800038c0:	0585bc83          	ld	s9,88(a1)
    800038c4:	0605bd03          	ld	s10,96(a1)
    800038c8:	0685bd83          	ld	s11,104(a1)
    800038cc:	00008067          	ret
    800038d0:	ff010113          	addi	sp,sp,-16
    800038d4:	00113423          	sd	ra,8(sp)
    800038d8:	00813023          	sd	s0,0(sp)
    800038dc:	01010413          	addi	s0,sp,16
    800038e0:	00007597          	auipc	a1,0x7
    800038e4:	b1058593          	addi	a1,a1,-1264 # 0x8000a3f0
    800038e8:	00015517          	auipc	a0,0x15
    800038ec:	00050513          	mv	a0,a0
    800038f0:	ffffd097          	auipc	ra,0xffffd
    800038f4:	6c4080e7          	jalr	1732(ra) # 0x80000fb4
    800038f8:	00813083          	ld	ra,8(sp)
    800038fc:	00013403          	ld	s0,0(sp)
    80003900:	01010113          	addi	sp,sp,16
    80003904:	00008067          	ret
    80003908:	ff010113          	addi	sp,sp,-16
    8000390c:	00813423          	sd	s0,8(sp)
    80003910:	01010413          	addi	s0,sp,16
    80003914:	00005797          	auipc	a5,0x5
    80003918:	9bc78793          	addi	a5,a5,-1604 # 0x800082d0
    8000391c:	10579073          	csrw	stvec,a5
    80003920:	00813403          	ld	s0,8(sp)
    80003924:	01010113          	addi	sp,sp,16
    80003928:	00008067          	ret
    8000392c:	ff010113          	addi	sp,sp,-16
    80003930:	00113423          	sd	ra,8(sp)
    80003934:	00813023          	sd	s0,0(sp)
    80003938:	01010413          	addi	s0,sp,16
    8000393c:	fffff097          	auipc	ra,0xfffff
    80003940:	dbc080e7          	jalr	-580(ra) # 0x800026f8
    80003944:	100027f3          	csrr	a5,sstatus
    80003948:	ffd7f793          	andi	a5,a5,-3
    8000394c:	10079073          	csrw	sstatus,a5
    80003950:	04000737          	lui	a4,0x4000
    80003954:	00005797          	auipc	a5,0x5
    80003958:	6ac78793          	addi	a5,a5,1708 # 0x80009000
    8000395c:	00005697          	auipc	a3,0x5
    80003960:	6a468693          	addi	a3,a3,1700 # 0x80009000
    80003964:	40d787b3          	sub	a5,a5,a3
    80003968:	fff70713          	addi	a4,a4,-1 # 0x3ffffff
    8000396c:	00c71713          	slli	a4,a4,0xc
    80003970:	00e787b3          	add	a5,a5,a4
    80003974:	10579073          	csrw	stvec,a5
    80003978:	05853783          	ld	a5,88(a0) # 0x80018940
    8000397c:	18002773          	csrr	a4,satp
    80003980:	00e7b023          	sd	a4,0(a5)
    80003984:	05853703          	ld	a4,88(a0)
    80003988:	04053783          	ld	a5,64(a0)
    8000398c:	000016b7          	lui	a3,0x1
    80003990:	00d787b3          	add	a5,a5,a3
    80003994:	00f73423          	sd	a5,8(a4)
    80003998:	05853783          	ld	a5,88(a0)
    8000399c:	00000717          	auipc	a4,0x0
    800039a0:	17c70713          	addi	a4,a4,380 # 0x80003b18
    800039a4:	00e7b823          	sd	a4,16(a5)
    800039a8:	05853783          	ld	a5,88(a0)
    800039ac:	00020713          	mv	a4,tp
    800039b0:	02e7b023          	sd	a4,32(a5)
    800039b4:	100027f3          	csrr	a5,sstatus
    800039b8:	eff7f793          	andi	a5,a5,-257
    800039bc:	0207e793          	ori	a5,a5,32
    800039c0:	10079073          	csrw	sstatus,a5
    800039c4:	05853783          	ld	a5,88(a0)
    800039c8:	0187b783          	ld	a5,24(a5)
    800039cc:	14179073          	csrw	sepc,a5
    800039d0:	00813083          	ld	ra,8(sp)
    800039d4:	00013403          	ld	s0,0(sp)
    800039d8:	01010113          	addi	sp,sp,16
    800039dc:	00008067          	ret
    800039e0:	fe010113          	addi	sp,sp,-32
    800039e4:	00113c23          	sd	ra,24(sp)
    800039e8:	00813823          	sd	s0,16(sp)
    800039ec:	00913423          	sd	s1,8(sp)
    800039f0:	02010413          	addi	s0,sp,32
    800039f4:	fffff097          	auipc	ra,0xfffff
    800039f8:	cb4080e7          	jalr	-844(ra) # 0x800026a8
    800039fc:	00050c63          	beqz	a0,0x80003a14
    80003a00:	01813083          	ld	ra,24(sp)
    80003a04:	01013403          	ld	s0,16(sp)
    80003a08:	00813483          	ld	s1,8(sp)
    80003a0c:	02010113          	addi	sp,sp,32
    80003a10:	00008067          	ret
    80003a14:	00015497          	auipc	s1,0x15
    80003a18:	ed448493          	addi	s1,s1,-300 # 0x800188e8
    80003a1c:	00048513          	mv	a0,s1
    80003a20:	ffffd097          	auipc	ra,0xffffd
    80003a24:	678080e7          	jalr	1656(ra) # 0x80001098
    80003a28:	00007517          	auipc	a0,0x7
    80003a2c:	f9050513          	addi	a0,a0,-112 # 0x8000a9b8
    80003a30:	00052783          	lw	a5,0(a0)
    80003a34:	0017879b          	addiw	a5,a5,1
    80003a38:	00f52023          	sw	a5,0(a0)
    80003a3c:	fffff097          	auipc	ra,0xfffff
    80003a40:	704080e7          	jalr	1796(ra) # 0x80003140
    80003a44:	00048513          	mv	a0,s1
    80003a48:	ffffd097          	auipc	ra,0xffffd
    80003a4c:	748080e7          	jalr	1864(ra) # 0x80001190
    80003a50:	fb1ff06f          	j	0x80003a00
    80003a54:	fe010113          	addi	sp,sp,-32
    80003a58:	00113c23          	sd	ra,24(sp)
    80003a5c:	00813823          	sd	s0,16(sp)
    80003a60:	00913423          	sd	s1,8(sp)
    80003a64:	02010413          	addi	s0,sp,32
    80003a68:	14202773          	csrr	a4,scause
    80003a6c:	fff00793          	li	a5,-1
    80003a70:	03f79793          	slli	a5,a5,0x3f
    80003a74:	00978793          	addi	a5,a5,9
    80003a78:	02f70663          	beq	a4,a5,0x80003aa4
    80003a7c:	fff00793          	li	a5,-1
    80003a80:	03f79793          	slli	a5,a5,0x3f
    80003a84:	00578793          	addi	a5,a5,5
    80003a88:	00000513          	li	a0,0
    80003a8c:	06f70e63          	beq	a4,a5,0x80003b08
    80003a90:	01813083          	ld	ra,24(sp)
    80003a94:	01013403          	ld	s0,16(sp)
    80003a98:	00813483          	ld	s1,8(sp)
    80003a9c:	02010113          	addi	sp,sp,32
    80003aa0:	00008067          	ret
    80003aa4:	00005097          	auipc	ra,0x5
    80003aa8:	940080e7          	jalr	-1728(ra) # 0x800083e4
    80003aac:	00050493          	mv	s1,a0
    80003ab0:	00a00793          	li	a5,10
    80003ab4:	02f50e63          	beq	a0,a5,0x80003af0
    80003ab8:	00100793          	li	a5,1
    80003abc:	04f50063          	beq	a0,a5,0x80003afc
    80003ac0:	00100513          	li	a0,1
    80003ac4:	fc0486e3          	beqz	s1,0x80003a90
    80003ac8:	00048593          	mv	a1,s1
    80003acc:	00007517          	auipc	a0,0x7
    80003ad0:	92c50513          	addi	a0,a0,-1748 # 0x8000a3f8
    80003ad4:	ffffd097          	auipc	ra,0xffffd
    80003ad8:	bd4080e7          	jalr	-1068(ra) # 0x800006a8
    80003adc:	00048513          	mv	a0,s1
    80003ae0:	00005097          	auipc	ra,0x5
    80003ae4:	93c080e7          	jalr	-1732(ra) # 0x8000841c
    80003ae8:	00100513          	li	a0,1
    80003aec:	fa5ff06f          	j	0x80003a90
    80003af0:	ffffd097          	auipc	ra,0xffffd
    80003af4:	23c080e7          	jalr	572(ra) # 0x80000d2c
    80003af8:	fe5ff06f          	j	0x80003adc
    80003afc:	00005097          	auipc	ra,0x5
    80003b00:	f5c080e7          	jalr	-164(ra) # 0x80008a58
    80003b04:	fd9ff06f          	j	0x80003adc
    80003b08:	00000097          	auipc	ra,0x0
    80003b0c:	ed8080e7          	jalr	-296(ra) # 0x800039e0
    80003b10:	00200513          	li	a0,2
    80003b14:	f7dff06f          	j	0x80003a90
    80003b18:	fe010113          	addi	sp,sp,-32
    80003b1c:	00113c23          	sd	ra,24(sp)
    80003b20:	00813823          	sd	s0,16(sp)
    80003b24:	00913423          	sd	s1,8(sp)
    80003b28:	01213023          	sd	s2,0(sp)
    80003b2c:	02010413          	addi	s0,sp,32
    80003b30:	100027f3          	csrr	a5,sstatus
    80003b34:	1007f793          	andi	a5,a5,256
    80003b38:	08079e63          	bnez	a5,0x80003bd4
    80003b3c:	00004797          	auipc	a5,0x4
    80003b40:	79478793          	addi	a5,a5,1940 # 0x800082d0
    80003b44:	10579073          	csrw	stvec,a5
    80003b48:	fffff097          	auipc	ra,0xfffff
    80003b4c:	bb0080e7          	jalr	-1104(ra) # 0x800026f8
    80003b50:	00050493          	mv	s1,a0
    80003b54:	05853783          	ld	a5,88(a0)
    80003b58:	14102773          	csrr	a4,sepc
    80003b5c:	00e7bc23          	sd	a4,24(a5)
    80003b60:	14202773          	csrr	a4,scause
    80003b64:	00800793          	li	a5,8
    80003b68:	06f70e63          	beq	a4,a5,0x80003be4
    80003b6c:	00000097          	auipc	ra,0x0
    80003b70:	ee8080e7          	jalr	-280(ra) # 0x80003a54
    80003b74:	00050913          	mv	s2,a0
    80003b78:	10051a63          	bnez	a0,0x80003c8c
    80003b7c:	14202773          	csrr	a4,scause
    80003b80:	00f00793          	li	a5,15
    80003b84:	0ef70263          	beq	a4,a5,0x80003c68
    80003b88:	14202773          	csrr	a4,scause
    80003b8c:	00d00793          	li	a5,13
    80003b90:	0cf70c63          	beq	a4,a5,0x80003c68
    80003b94:	142025f3          	csrr	a1,scause
    80003b98:	0304a603          	lw	a2,48(s1)
    80003b9c:	00007517          	auipc	a0,0x7
    80003ba0:	89c50513          	addi	a0,a0,-1892 # 0x8000a438
    80003ba4:	ffffd097          	auipc	ra,0xffffd
    80003ba8:	b04080e7          	jalr	-1276(ra) # 0x800006a8
    80003bac:	141025f3          	csrr	a1,sepc
    80003bb0:	14302673          	csrr	a2,stval
    80003bb4:	00007517          	auipc	a0,0x7
    80003bb8:	8b450513          	addi	a0,a0,-1868 # 0x8000a468
    80003bbc:	ffffd097          	auipc	ra,0xffffd
    80003bc0:	aec080e7          	jalr	-1300(ra) # 0x800006a8
    80003bc4:	00048513          	mv	a0,s1
    80003bc8:	00000097          	auipc	ra,0x0
    80003bcc:	850080e7          	jalr	-1968(ra) # 0x80003418
    80003bd0:	0440006f          	j	0x80003c14
    80003bd4:	00007517          	auipc	a0,0x7
    80003bd8:	84450513          	addi	a0,a0,-1980 # 0x8000a418
    80003bdc:	ffffd097          	auipc	ra,0xffffd
    80003be0:	ea4080e7          	jalr	-348(ra) # 0x80000a80
    80003be4:	00000097          	auipc	ra,0x0
    80003be8:	87c080e7          	jalr	-1924(ra) # 0x80003460
    80003bec:	06051663          	bnez	a0,0x80003c58
    80003bf0:	0584b703          	ld	a4,88(s1)
    80003bf4:	01873783          	ld	a5,24(a4)
    80003bf8:	00478793          	addi	a5,a5,4
    80003bfc:	00f73c23          	sd	a5,24(a4)
    80003c00:	100027f3          	csrr	a5,sstatus
    80003c04:	0027e793          	ori	a5,a5,2
    80003c08:	10079073          	csrw	sstatus,a5
    80003c0c:	00000097          	auipc	ra,0x0
    80003c10:	400080e7          	jalr	1024(ra) # 0x8000400c
    80003c14:	00048513          	mv	a0,s1
    80003c18:	00000097          	auipc	ra,0x0
    80003c1c:	848080e7          	jalr	-1976(ra) # 0x80003460
    80003c20:	08051063          	bnez	a0,0x80003ca0
    80003c24:	00000097          	auipc	ra,0x0
    80003c28:	d08080e7          	jalr	-760(ra) # 0x8000392c
    80003c2c:	0504b503          	ld	a0,80(s1)
    80003c30:	00c55513          	srli	a0,a0,0xc
    80003c34:	fff00793          	li	a5,-1
    80003c38:	03f79793          	slli	a5,a5,0x3f
    80003c3c:	00f56533          	or	a0,a0,a5
    80003c40:	01813083          	ld	ra,24(sp)
    80003c44:	01013403          	ld	s0,16(sp)
    80003c48:	00813483          	ld	s1,8(sp)
    80003c4c:	00013903          	ld	s2,0(sp)
    80003c50:	02010113          	addi	sp,sp,32
    80003c54:	00008067          	ret
    80003c58:	fff00513          	li	a0,-1
    80003c5c:	fffff097          	auipc	ra,0xfffff
    80003c60:	614080e7          	jalr	1556(ra) # 0x80003270
    80003c64:	f8dff06f          	j	0x80003bf0
    80003c68:	143025f3          	csrr	a1,stval
    80003c6c:	14202673          	csrr	a2,scause
    80003c70:	ff360613          	addi	a2,a2,-13 # 0xff3
    80003c74:	00163613          	seqz	a2,a2
    80003c78:	0504b503          	ld	a0,80(s1)
    80003c7c:	ffffe097          	auipc	ra,0xffffe
    80003c80:	52c080e7          	jalr	1324(ra) # 0x800021a8
    80003c84:	f80518e3          	bnez	a0,0x80003c14
    80003c88:	f0dff06f          	j	0x80003b94
    80003c8c:	00048513          	mv	a0,s1
    80003c90:	fffff097          	auipc	ra,0xfffff
    80003c94:	7d0080e7          	jalr	2000(ra) # 0x80003460
    80003c98:	00050c63          	beqz	a0,0x80003cb0
    80003c9c:	0080006f          	j	0x80003ca4
    80003ca0:	00000913          	li	s2,0
    80003ca4:	fff00513          	li	a0,-1
    80003ca8:	fffff097          	auipc	ra,0xfffff
    80003cac:	5c8080e7          	jalr	1480(ra) # 0x80003270
    80003cb0:	00200793          	li	a5,2
    80003cb4:	f6f918e3          	bne	s2,a5,0x80003c24
    80003cb8:	fffff097          	auipc	ra,0xfffff
    80003cbc:	3a0080e7          	jalr	928(ra) # 0x80003058
    80003cc0:	f65ff06f          	j	0x80003c24
    80003cc4:	fd010113          	addi	sp,sp,-48
    80003cc8:	02113423          	sd	ra,40(sp)
    80003ccc:	02813023          	sd	s0,32(sp)
    80003cd0:	00913c23          	sd	s1,24(sp)
    80003cd4:	01213823          	sd	s2,16(sp)
    80003cd8:	01313423          	sd	s3,8(sp)
    80003cdc:	03010413          	addi	s0,sp,48
    80003ce0:	14102973          	csrr	s2,sepc
    80003ce4:	100024f3          	csrr	s1,sstatus
    80003ce8:	142029f3          	csrr	s3,scause
    80003cec:	1004f793          	andi	a5,s1,256
    80003cf0:	04078463          	beqz	a5,0x80003d38
    80003cf4:	100027f3          	csrr	a5,sstatus
    80003cf8:	0027f793          	andi	a5,a5,2
    80003cfc:	04079663          	bnez	a5,0x80003d48
    80003d00:	00000097          	auipc	ra,0x0
    80003d04:	d54080e7          	jalr	-684(ra) # 0x80003a54
    80003d08:	04050863          	beqz	a0,0x80003d58
    80003d0c:	00200793          	li	a5,2
    80003d10:	06f50a63          	beq	a0,a5,0x80003d84
    80003d14:	14191073          	csrw	sepc,s2
    80003d18:	10049073          	csrw	sstatus,s1
    80003d1c:	02813083          	ld	ra,40(sp)
    80003d20:	02013403          	ld	s0,32(sp)
    80003d24:	01813483          	ld	s1,24(sp)
    80003d28:	01013903          	ld	s2,16(sp)
    80003d2c:	00813983          	ld	s3,8(sp)
    80003d30:	03010113          	addi	sp,sp,48
    80003d34:	00008067          	ret
    80003d38:	00006517          	auipc	a0,0x6
    80003d3c:	75850513          	addi	a0,a0,1880 # 0x8000a490
    80003d40:	ffffd097          	auipc	ra,0xffffd
    80003d44:	d40080e7          	jalr	-704(ra) # 0x80000a80
    80003d48:	00006517          	auipc	a0,0x6
    80003d4c:	77050513          	addi	a0,a0,1904 # 0x8000a4b8
    80003d50:	ffffd097          	auipc	ra,0xffffd
    80003d54:	d30080e7          	jalr	-720(ra) # 0x80000a80
    80003d58:	14102673          	csrr	a2,sepc
    80003d5c:	143026f3          	csrr	a3,stval
    80003d60:	00098593          	mv	a1,s3
    80003d64:	00006517          	auipc	a0,0x6
    80003d68:	77450513          	addi	a0,a0,1908 # 0x8000a4d8
    80003d6c:	ffffd097          	auipc	ra,0xffffd
    80003d70:	93c080e7          	jalr	-1732(ra) # 0x800006a8
    80003d74:	00006517          	auipc	a0,0x6
    80003d78:	78c50513          	addi	a0,a0,1932 # 0x8000a500
    80003d7c:	ffffd097          	auipc	ra,0xffffd
    80003d80:	d04080e7          	jalr	-764(ra) # 0x80000a80
    80003d84:	fffff097          	auipc	ra,0xfffff
    80003d88:	974080e7          	jalr	-1676(ra) # 0x800026f8
    80003d8c:	f80504e3          	beqz	a0,0x80003d14
    80003d90:	fffff097          	auipc	ra,0xfffff
    80003d94:	2c8080e7          	jalr	712(ra) # 0x80003058
    80003d98:	f7dff06f          	j	0x80003d14
    80003d9c:	fe010113          	addi	sp,sp,-32
    80003da0:	00113c23          	sd	ra,24(sp)
    80003da4:	00813823          	sd	s0,16(sp)
    80003da8:	00913423          	sd	s1,8(sp)
    80003dac:	02010413          	addi	s0,sp,32
    80003db0:	00050493          	mv	s1,a0
    80003db4:	fffff097          	auipc	ra,0xfffff
    80003db8:	944080e7          	jalr	-1724(ra) # 0x800026f8
    80003dbc:	00500793          	li	a5,5
    80003dc0:	0697ec63          	bltu	a5,s1,0x80003e38
    80003dc4:	00249493          	slli	s1,s1,0x2
    80003dc8:	00006717          	auipc	a4,0x6
    80003dcc:	77070713          	addi	a4,a4,1904 # 0x8000a538
    80003dd0:	00e484b3          	add	s1,s1,a4
    80003dd4:	0004a783          	lw	a5,0(s1)
    80003dd8:	00e787b3          	add	a5,a5,a4
    80003ddc:	00078067          	jr	a5
    80003de0:	05853783          	ld	a5,88(a0)
    80003de4:	0707b503          	ld	a0,112(a5)
    80003de8:	01813083          	ld	ra,24(sp)
    80003dec:	01013403          	ld	s0,16(sp)
    80003df0:	00813483          	ld	s1,8(sp)
    80003df4:	02010113          	addi	sp,sp,32
    80003df8:	00008067          	ret
    80003dfc:	05853783          	ld	a5,88(a0)
    80003e00:	0787b503          	ld	a0,120(a5)
    80003e04:	fe5ff06f          	j	0x80003de8
    80003e08:	05853783          	ld	a5,88(a0)
    80003e0c:	0807b503          	ld	a0,128(a5)
    80003e10:	fd9ff06f          	j	0x80003de8
    80003e14:	05853783          	ld	a5,88(a0)
    80003e18:	0887b503          	ld	a0,136(a5)
    80003e1c:	fcdff06f          	j	0x80003de8
    80003e20:	05853783          	ld	a5,88(a0)
    80003e24:	0907b503          	ld	a0,144(a5)
    80003e28:	fc1ff06f          	j	0x80003de8
    80003e2c:	05853783          	ld	a5,88(a0)
    80003e30:	0987b503          	ld	a0,152(a5)
    80003e34:	fb5ff06f          	j	0x80003de8
    80003e38:	00006517          	auipc	a0,0x6
    80003e3c:	6d850513          	addi	a0,a0,1752 # 0x8000a510
    80003e40:	ffffd097          	auipc	ra,0xffffd
    80003e44:	c40080e7          	jalr	-960(ra) # 0x80000a80
    80003e48:	fe010113          	addi	sp,sp,-32
    80003e4c:	00113c23          	sd	ra,24(sp)
    80003e50:	00813823          	sd	s0,16(sp)
    80003e54:	00913423          	sd	s1,8(sp)
    80003e58:	01213023          	sd	s2,0(sp)
    80003e5c:	02010413          	addi	s0,sp,32
    80003e60:	00050493          	mv	s1,a0
    80003e64:	00058913          	mv	s2,a1
    80003e68:	fffff097          	auipc	ra,0xfffff
    80003e6c:	890080e7          	jalr	-1904(ra) # 0x800026f8
    80003e70:	04853783          	ld	a5,72(a0)
    80003e74:	04f4f263          	bgeu	s1,a5,0x80003eb8
    80003e78:	00848713          	addi	a4,s1,8
    80003e7c:	04e7e263          	bltu	a5,a4,0x80003ec0
    80003e80:	00800693          	li	a3,8
    80003e84:	00048613          	mv	a2,s1
    80003e88:	00090593          	mv	a1,s2
    80003e8c:	05053503          	ld	a0,80(a0)
    80003e90:	ffffe097          	auipc	ra,0xffffe
    80003e94:	55c080e7          	jalr	1372(ra) # 0x800023ec
    80003e98:	00a03533          	snez	a0,a0
    80003e9c:	40a00533          	neg	a0,a0
    80003ea0:	01813083          	ld	ra,24(sp)
    80003ea4:	01013403          	ld	s0,16(sp)
    80003ea8:	00813483          	ld	s1,8(sp)
    80003eac:	00013903          	ld	s2,0(sp)
    80003eb0:	02010113          	addi	sp,sp,32
    80003eb4:	00008067          	ret
    80003eb8:	fff00513          	li	a0,-1
    80003ebc:	fe5ff06f          	j	0x80003ea0
    80003ec0:	fff00513          	li	a0,-1
    80003ec4:	fddff06f          	j	0x80003ea0
    80003ec8:	fd010113          	addi	sp,sp,-48
    80003ecc:	02113423          	sd	ra,40(sp)
    80003ed0:	02813023          	sd	s0,32(sp)
    80003ed4:	00913c23          	sd	s1,24(sp)
    80003ed8:	01213823          	sd	s2,16(sp)
    80003edc:	01313423          	sd	s3,8(sp)
    80003ee0:	03010413          	addi	s0,sp,48
    80003ee4:	00050913          	mv	s2,a0
    80003ee8:	00058493          	mv	s1,a1
    80003eec:	00060993          	mv	s3,a2
    80003ef0:	fffff097          	auipc	ra,0xfffff
    80003ef4:	808080e7          	jalr	-2040(ra) # 0x800026f8
    80003ef8:	00098693          	mv	a3,s3
    80003efc:	00090613          	mv	a2,s2
    80003f00:	00048593          	mv	a1,s1
    80003f04:	05053503          	ld	a0,80(a0)
    80003f08:	ffffe097          	auipc	ra,0xffffe
    80003f0c:	144080e7          	jalr	324(ra) # 0x8000204c
    80003f10:	02054663          	bltz	a0,0x80003f3c
    80003f14:	00048513          	mv	a0,s1
    80003f18:	ffffd097          	auipc	ra,0xffffd
    80003f1c:	524080e7          	jalr	1316(ra) # 0x8000143c
    80003f20:	02813083          	ld	ra,40(sp)
    80003f24:	02013403          	ld	s0,32(sp)
    80003f28:	01813483          	ld	s1,24(sp)
    80003f2c:	01013903          	ld	s2,16(sp)
    80003f30:	00813983          	ld	s3,8(sp)
    80003f34:	03010113          	addi	sp,sp,48
    80003f38:	00008067          	ret
    80003f3c:	fff00513          	li	a0,-1
    80003f40:	fe1ff06f          	j	0x80003f20
    80003f44:	fe010113          	addi	sp,sp,-32
    80003f48:	00113c23          	sd	ra,24(sp)
    80003f4c:	00813823          	sd	s0,16(sp)
    80003f50:	00913423          	sd	s1,8(sp)
    80003f54:	02010413          	addi	s0,sp,32
    80003f58:	00058493          	mv	s1,a1
    80003f5c:	00000097          	auipc	ra,0x0
    80003f60:	e40080e7          	jalr	-448(ra) # 0x80003d9c
    80003f64:	00a4a023          	sw	a0,0(s1)
    80003f68:	01813083          	ld	ra,24(sp)
    80003f6c:	01013403          	ld	s0,16(sp)
    80003f70:	00813483          	ld	s1,8(sp)
    80003f74:	02010113          	addi	sp,sp,32
    80003f78:	00008067          	ret
    80003f7c:	fe010113          	addi	sp,sp,-32
    80003f80:	00113c23          	sd	ra,24(sp)
    80003f84:	00813823          	sd	s0,16(sp)
    80003f88:	00913423          	sd	s1,8(sp)
    80003f8c:	02010413          	addi	s0,sp,32
    80003f90:	00058493          	mv	s1,a1
    80003f94:	00000097          	auipc	ra,0x0
    80003f98:	e08080e7          	jalr	-504(ra) # 0x80003d9c
    80003f9c:	00a4b023          	sd	a0,0(s1)
    80003fa0:	01813083          	ld	ra,24(sp)
    80003fa4:	01013403          	ld	s0,16(sp)
    80003fa8:	00813483          	ld	s1,8(sp)
    80003fac:	02010113          	addi	sp,sp,32
    80003fb0:	00008067          	ret
    80003fb4:	fd010113          	addi	sp,sp,-48
    80003fb8:	02113423          	sd	ra,40(sp)
    80003fbc:	02813023          	sd	s0,32(sp)
    80003fc0:	00913c23          	sd	s1,24(sp)
    80003fc4:	01213823          	sd	s2,16(sp)
    80003fc8:	03010413          	addi	s0,sp,48
    80003fcc:	00058493          	mv	s1,a1
    80003fd0:	00060913          	mv	s2,a2
    80003fd4:	fd840593          	addi	a1,s0,-40
    80003fd8:	00000097          	auipc	ra,0x0
    80003fdc:	fa4080e7          	jalr	-92(ra) # 0x80003f7c
    80003fe0:	00090613          	mv	a2,s2
    80003fe4:	00048593          	mv	a1,s1
    80003fe8:	fd843503          	ld	a0,-40(s0)
    80003fec:	00000097          	auipc	ra,0x0
    80003ff0:	edc080e7          	jalr	-292(ra) # 0x80003ec8
    80003ff4:	02813083          	ld	ra,40(sp)
    80003ff8:	02013403          	ld	s0,32(sp)
    80003ffc:	01813483          	ld	s1,24(sp)
    80004000:	01013903          	ld	s2,16(sp)
    80004004:	03010113          	addi	sp,sp,48
    80004008:	00008067          	ret
    8000400c:	fe010113          	addi	sp,sp,-32
    80004010:	00113c23          	sd	ra,24(sp)
    80004014:	00813823          	sd	s0,16(sp)
    80004018:	00913423          	sd	s1,8(sp)
    8000401c:	01213023          	sd	s2,0(sp)
    80004020:	02010413          	addi	s0,sp,32
    80004024:	ffffe097          	auipc	ra,0xffffe
    80004028:	6d4080e7          	jalr	1748(ra) # 0x800026f8
    8000402c:	00050493          	mv	s1,a0
    80004030:	05853903          	ld	s2,88(a0)
    80004034:	0a893783          	ld	a5,168(s2)
    80004038:	0007869b          	sext.w	a3,a5
    8000403c:	fff7879b          	addiw	a5,a5,-1
    80004040:	01400713          	li	a4,20
    80004044:	02f76463          	bltu	a4,a5,0x8000406c
    80004048:	00369713          	slli	a4,a3,0x3
    8000404c:	00006797          	auipc	a5,0x6
    80004050:	50478793          	addi	a5,a5,1284 # 0x8000a550
    80004054:	00e787b3          	add	a5,a5,a4
    80004058:	0007b783          	ld	a5,0(a5)
    8000405c:	00078863          	beqz	a5,0x8000406c
    80004060:	000780e7          	jalr	a5
    80004064:	06a93823          	sd	a0,112(s2)
    80004068:	0280006f          	j	0x80004090
    8000406c:	15848613          	addi	a2,s1,344
    80004070:	0304a583          	lw	a1,48(s1)
    80004074:	00006517          	auipc	a0,0x6
    80004078:	4a450513          	addi	a0,a0,1188 # 0x8000a518
    8000407c:	ffffc097          	auipc	ra,0xffffc
    80004080:	62c080e7          	jalr	1580(ra) # 0x800006a8
    80004084:	0584b783          	ld	a5,88(s1)
    80004088:	fff00713          	li	a4,-1
    8000408c:	06e7b823          	sd	a4,112(a5)
    80004090:	01813083          	ld	ra,24(sp)
    80004094:	01013403          	ld	s0,16(sp)
    80004098:	00813483          	ld	s1,8(sp)
    8000409c:	00013903          	ld	s2,0(sp)
    800040a0:	02010113          	addi	sp,sp,32
    800040a4:	00008067          	ret
    800040a8:	fe010113          	addi	sp,sp,-32
    800040ac:	00113c23          	sd	ra,24(sp)
    800040b0:	00813823          	sd	s0,16(sp)
    800040b4:	02010413          	addi	s0,sp,32
    800040b8:	fec40593          	addi	a1,s0,-20
    800040bc:	00000513          	li	a0,0
    800040c0:	00000097          	auipc	ra,0x0
    800040c4:	e84080e7          	jalr	-380(ra) # 0x80003f44
    800040c8:	fec42503          	lw	a0,-20(s0)
    800040cc:	fffff097          	auipc	ra,0xfffff
    800040d0:	1a4080e7          	jalr	420(ra) # 0x80003270
    800040d4:	00000513          	li	a0,0
    800040d8:	01813083          	ld	ra,24(sp)
    800040dc:	01013403          	ld	s0,16(sp)
    800040e0:	02010113          	addi	sp,sp,32
    800040e4:	00008067          	ret
    800040e8:	ff010113          	addi	sp,sp,-16
    800040ec:	00113423          	sd	ra,8(sp)
    800040f0:	00813023          	sd	s0,0(sp)
    800040f4:	01010413          	addi	s0,sp,16
    800040f8:	ffffe097          	auipc	ra,0xffffe
    800040fc:	600080e7          	jalr	1536(ra) # 0x800026f8
    80004100:	03052503          	lw	a0,48(a0)
    80004104:	00813083          	ld	ra,8(sp)
    80004108:	00013403          	ld	s0,0(sp)
    8000410c:	01010113          	addi	sp,sp,16
    80004110:	00008067          	ret
    80004114:	ff010113          	addi	sp,sp,-16
    80004118:	00113423          	sd	ra,8(sp)
    8000411c:	00813023          	sd	s0,0(sp)
    80004120:	01010413          	addi	s0,sp,16
    80004124:	fffff097          	auipc	ra,0xfffff
    80004128:	b78080e7          	jalr	-1160(ra) # 0x80002c9c
    8000412c:	00813083          	ld	ra,8(sp)
    80004130:	00013403          	ld	s0,0(sp)
    80004134:	01010113          	addi	sp,sp,16
    80004138:	00008067          	ret
    8000413c:	fe010113          	addi	sp,sp,-32
    80004140:	00113c23          	sd	ra,24(sp)
    80004144:	00813823          	sd	s0,16(sp)
    80004148:	02010413          	addi	s0,sp,32
    8000414c:	fe840593          	addi	a1,s0,-24
    80004150:	00000513          	li	a0,0
    80004154:	00000097          	auipc	ra,0x0
    80004158:	e28080e7          	jalr	-472(ra) # 0x80003f7c
    8000415c:	fe843503          	ld	a0,-24(s0)
    80004160:	fffff097          	auipc	ra,0xfffff
    80004164:	350080e7          	jalr	848(ra) # 0x800034b0
    80004168:	01813083          	ld	ra,24(sp)
    8000416c:	01013403          	ld	s0,16(sp)
    80004170:	02010113          	addi	sp,sp,32
    80004174:	00008067          	ret
    80004178:	fd010113          	addi	sp,sp,-48
    8000417c:	02113423          	sd	ra,40(sp)
    80004180:	02813023          	sd	s0,32(sp)
    80004184:	00913c23          	sd	s1,24(sp)
    80004188:	03010413          	addi	s0,sp,48
    8000418c:	fd840593          	addi	a1,s0,-40
    80004190:	00000513          	li	a0,0
    80004194:	00000097          	auipc	ra,0x0
    80004198:	db0080e7          	jalr	-592(ra) # 0x80003f44
    8000419c:	fdc40593          	addi	a1,s0,-36
    800041a0:	00100513          	li	a0,1
    800041a4:	00000097          	auipc	ra,0x0
    800041a8:	da0080e7          	jalr	-608(ra) # 0x80003f44
    800041ac:	ffffe097          	auipc	ra,0xffffe
    800041b0:	54c080e7          	jalr	1356(ra) # 0x800026f8
    800041b4:	04853483          	ld	s1,72(a0)
    800041b8:	fdc42703          	lw	a4,-36(s0)
    800041bc:	00100793          	li	a5,1
    800041c0:	02f70863          	beq	a4,a5,0x800041f0
    800041c4:	fd842783          	lw	a5,-40(s0)
    800041c8:	0207c463          	bltz	a5,0x800041f0
    800041cc:	009787b3          	add	a5,a5,s1
    800041d0:	0497e863          	bltu	a5,s1,0x80004220
    800041d4:	ffffe097          	auipc	ra,0xffffe
    800041d8:	524080e7          	jalr	1316(ra) # 0x800026f8
    800041dc:	fd842703          	lw	a4,-40(s0)
    800041e0:	04853783          	ld	a5,72(a0)
    800041e4:	00e787b3          	add	a5,a5,a4
    800041e8:	04f53423          	sd	a5,72(a0)
    800041ec:	0140006f          	j	0x80004200
    800041f0:	fd842503          	lw	a0,-40(s0)
    800041f4:	fffff097          	auipc	ra,0xfffff
    800041f8:	a18080e7          	jalr	-1512(ra) # 0x80002c0c
    800041fc:	00054e63          	bltz	a0,0x80004218
    80004200:	00048513          	mv	a0,s1
    80004204:	02813083          	ld	ra,40(sp)
    80004208:	02013403          	ld	s0,32(sp)
    8000420c:	01813483          	ld	s1,24(sp)
    80004210:	03010113          	addi	sp,sp,48
    80004214:	00008067          	ret
    80004218:	fff00493          	li	s1,-1
    8000421c:	fe5ff06f          	j	0x80004200
    80004220:	fff00493          	li	s1,-1
    80004224:	fddff06f          	j	0x80004200
    80004228:	fc010113          	addi	sp,sp,-64
    8000422c:	02113c23          	sd	ra,56(sp)
    80004230:	02813823          	sd	s0,48(sp)
    80004234:	02913423          	sd	s1,40(sp)
    80004238:	03213023          	sd	s2,32(sp)
    8000423c:	01313c23          	sd	s3,24(sp)
    80004240:	04010413          	addi	s0,sp,64
    80004244:	fcc40593          	addi	a1,s0,-52
    80004248:	00000513          	li	a0,0
    8000424c:	00000097          	auipc	ra,0x0
    80004250:	cf8080e7          	jalr	-776(ra) # 0x80003f44
    80004254:	fcc42783          	lw	a5,-52(s0)
    80004258:	0807cc63          	bltz	a5,0x800042f0
    8000425c:	00014517          	auipc	a0,0x14
    80004260:	68c50513          	addi	a0,a0,1676 # 0x800188e8
    80004264:	ffffd097          	auipc	ra,0xffffd
    80004268:	e34080e7          	jalr	-460(ra) # 0x80001098
    8000426c:	00006917          	auipc	s2,0x6
    80004270:	74c92903          	lw	s2,1868(s2) # 0x8000a9b8
    80004274:	fcc42783          	lw	a5,-52(s0)
    80004278:	04078463          	beqz	a5,0x800042c0
    8000427c:	00014997          	auipc	s3,0x14
    80004280:	66c98993          	addi	s3,s3,1644 # 0x800188e8
    80004284:	00006497          	auipc	s1,0x6
    80004288:	73448493          	addi	s1,s1,1844 # 0x8000a9b8
    8000428c:	ffffe097          	auipc	ra,0xffffe
    80004290:	46c080e7          	jalr	1132(ra) # 0x800026f8
    80004294:	fffff097          	auipc	ra,0xfffff
    80004298:	1cc080e7          	jalr	460(ra) # 0x80003460
    8000429c:	04051e63          	bnez	a0,0x800042f8
    800042a0:	00098593          	mv	a1,s3
    800042a4:	00048513          	mv	a0,s1
    800042a8:	fffff097          	auipc	ra,0xfffff
    800042ac:	e08080e7          	jalr	-504(ra) # 0x800030b0
    800042b0:	0004a783          	lw	a5,0(s1)
    800042b4:	412787bb          	subw	a5,a5,s2
    800042b8:	fcc42703          	lw	a4,-52(s0)
    800042bc:	fce7e8e3          	bltu	a5,a4,0x8000428c
    800042c0:	00014517          	auipc	a0,0x14
    800042c4:	62850513          	addi	a0,a0,1576 # 0x800188e8
    800042c8:	ffffd097          	auipc	ra,0xffffd
    800042cc:	ec8080e7          	jalr	-312(ra) # 0x80001190
    800042d0:	00000513          	li	a0,0
    800042d4:	03813083          	ld	ra,56(sp)
    800042d8:	03013403          	ld	s0,48(sp)
    800042dc:	02813483          	ld	s1,40(sp)
    800042e0:	02013903          	ld	s2,32(sp)
    800042e4:	01813983          	ld	s3,24(sp)
    800042e8:	04010113          	addi	sp,sp,64
    800042ec:	00008067          	ret
    800042f0:	fc042623          	sw	zero,-52(s0)
    800042f4:	f69ff06f          	j	0x8000425c
    800042f8:	00014517          	auipc	a0,0x14
    800042fc:	5f050513          	addi	a0,a0,1520 # 0x800188e8
    80004300:	ffffd097          	auipc	ra,0xffffd
    80004304:	e90080e7          	jalr	-368(ra) # 0x80001190
    80004308:	fff00513          	li	a0,-1
    8000430c:	fc9ff06f          	j	0x800042d4
    80004310:	fe010113          	addi	sp,sp,-32
    80004314:	00113c23          	sd	ra,24(sp)
    80004318:	00813823          	sd	s0,16(sp)
    8000431c:	02010413          	addi	s0,sp,32
    80004320:	fec40593          	addi	a1,s0,-20
    80004324:	00000513          	li	a0,0
    80004328:	00000097          	auipc	ra,0x0
    8000432c:	c1c080e7          	jalr	-996(ra) # 0x80003f44
    80004330:	fec42503          	lw	a0,-20(s0)
    80004334:	fffff097          	auipc	ra,0xfffff
    80004338:	038080e7          	jalr	56(ra) # 0x8000336c
    8000433c:	01813083          	ld	ra,24(sp)
    80004340:	01013403          	ld	s0,16(sp)
    80004344:	02010113          	addi	sp,sp,32
    80004348:	00008067          	ret
    8000434c:	fe010113          	addi	sp,sp,-32
    80004350:	00113c23          	sd	ra,24(sp)
    80004354:	00813823          	sd	s0,16(sp)
    80004358:	00913423          	sd	s1,8(sp)
    8000435c:	02010413          	addi	s0,sp,32
    80004360:	00014517          	auipc	a0,0x14
    80004364:	58850513          	addi	a0,a0,1416 # 0x800188e8
    80004368:	ffffd097          	auipc	ra,0xffffd
    8000436c:	d30080e7          	jalr	-720(ra) # 0x80001098
    80004370:	00006497          	auipc	s1,0x6
    80004374:	6484a483          	lw	s1,1608(s1) # 0x8000a9b8
    80004378:	00014517          	auipc	a0,0x14
    8000437c:	57050513          	addi	a0,a0,1392 # 0x800188e8
    80004380:	ffffd097          	auipc	ra,0xffffd
    80004384:	e10080e7          	jalr	-496(ra) # 0x80001190
    80004388:	02049513          	slli	a0,s1,0x20
    8000438c:	02055513          	srli	a0,a0,0x20
    80004390:	01813083          	ld	ra,24(sp)
    80004394:	01013403          	ld	s0,16(sp)
    80004398:	00813483          	ld	s1,8(sp)
    8000439c:	02010113          	addi	sp,sp,32
    800043a0:	00008067          	ret
    800043a4:	fd010113          	addi	sp,sp,-48
    800043a8:	02113423          	sd	ra,40(sp)
    800043ac:	02813023          	sd	s0,32(sp)
    800043b0:	00913c23          	sd	s1,24(sp)
    800043b4:	01213823          	sd	s2,16(sp)
    800043b8:	01313423          	sd	s3,8(sp)
    800043bc:	01413023          	sd	s4,0(sp)
    800043c0:	03010413          	addi	s0,sp,48
    800043c4:	00006597          	auipc	a1,0x6
    800043c8:	23c58593          	addi	a1,a1,572 # 0x8000a600
    800043cc:	00014517          	auipc	a0,0x14
    800043d0:	53450513          	addi	a0,a0,1332 # 0x80018900
    800043d4:	ffffd097          	auipc	ra,0xffffd
    800043d8:	be0080e7          	jalr	-1056(ra) # 0x80000fb4
    800043dc:	0001c797          	auipc	a5,0x1c
    800043e0:	52478793          	addi	a5,a5,1316 # 0x80020900
    800043e4:	0001c717          	auipc	a4,0x1c
    800043e8:	78470713          	addi	a4,a4,1924 # 0x80020b68
    800043ec:	2ae7b823          	sd	a4,688(a5)
    800043f0:	2ae7bc23          	sd	a4,696(a5)
    800043f4:	00014497          	auipc	s1,0x14
    800043f8:	52448493          	addi	s1,s1,1316 # 0x80018918
    800043fc:	00078913          	mv	s2,a5
    80004400:	00070993          	mv	s3,a4
    80004404:	00006a17          	auipc	s4,0x6
    80004408:	204a0a13          	addi	s4,s4,516 # 0x8000a608
    8000440c:	2b893783          	ld	a5,696(s2)
    80004410:	04f4b823          	sd	a5,80(s1)
    80004414:	0534b423          	sd	s3,72(s1)
    80004418:	000a0593          	mv	a1,s4
    8000441c:	01048513          	addi	a0,s1,16
    80004420:	00002097          	auipc	ra,0x2
    80004424:	e08080e7          	jalr	-504(ra) # 0x80006228
    80004428:	2b893783          	ld	a5,696(s2)
    8000442c:	0497b423          	sd	s1,72(a5)
    80004430:	2a993c23          	sd	s1,696(s2)
    80004434:	45848493          	addi	s1,s1,1112
    80004438:	fd349ae3          	bne	s1,s3,0x8000440c
    8000443c:	02813083          	ld	ra,40(sp)
    80004440:	02013403          	ld	s0,32(sp)
    80004444:	01813483          	ld	s1,24(sp)
    80004448:	01013903          	ld	s2,16(sp)
    8000444c:	00813983          	ld	s3,8(sp)
    80004450:	00013a03          	ld	s4,0(sp)
    80004454:	03010113          	addi	sp,sp,48
    80004458:	00008067          	ret
    8000445c:	fd010113          	addi	sp,sp,-48
    80004460:	02113423          	sd	ra,40(sp)
    80004464:	02813023          	sd	s0,32(sp)
    80004468:	00913c23          	sd	s1,24(sp)
    8000446c:	01213823          	sd	s2,16(sp)
    80004470:	01313423          	sd	s3,8(sp)
    80004474:	03010413          	addi	s0,sp,48
    80004478:	00050913          	mv	s2,a0
    8000447c:	00058993          	mv	s3,a1
    80004480:	00014517          	auipc	a0,0x14
    80004484:	48050513          	addi	a0,a0,1152 # 0x80018900
    80004488:	ffffd097          	auipc	ra,0xffffd
    8000448c:	c10080e7          	jalr	-1008(ra) # 0x80001098
    80004490:	0001c497          	auipc	s1,0x1c
    80004494:	7284b483          	ld	s1,1832(s1) # 0x80020bb8
    80004498:	0001c797          	auipc	a5,0x1c
    8000449c:	6d078793          	addi	a5,a5,1744 # 0x80020b68
    800044a0:	04f48863          	beq	s1,a5,0x800044f0
    800044a4:	00078713          	mv	a4,a5
    800044a8:	00c0006f          	j	0x800044b4
    800044ac:	0504b483          	ld	s1,80(s1)
    800044b0:	04e48063          	beq	s1,a4,0x800044f0
    800044b4:	0084a783          	lw	a5,8(s1)
    800044b8:	ff279ae3          	bne	a5,s2,0x800044ac
    800044bc:	00c4a783          	lw	a5,12(s1)
    800044c0:	ff3796e3          	bne	a5,s3,0x800044ac
    800044c4:	0404a783          	lw	a5,64(s1)
    800044c8:	0017879b          	addiw	a5,a5,1
    800044cc:	04f4a023          	sw	a5,64(s1)
    800044d0:	00014517          	auipc	a0,0x14
    800044d4:	43050513          	addi	a0,a0,1072 # 0x80018900
    800044d8:	ffffd097          	auipc	ra,0xffffd
    800044dc:	cb8080e7          	jalr	-840(ra) # 0x80001190
    800044e0:	01048513          	addi	a0,s1,16
    800044e4:	00002097          	auipc	ra,0x2
    800044e8:	d9c080e7          	jalr	-612(ra) # 0x80006280
    800044ec:	06c0006f          	j	0x80004558
    800044f0:	0001c497          	auipc	s1,0x1c
    800044f4:	6c04b483          	ld	s1,1728(s1) # 0x80020bb0
    800044f8:	0001c797          	auipc	a5,0x1c
    800044fc:	67078793          	addi	a5,a5,1648 # 0x80020b68
    80004500:	00f48c63          	beq	s1,a5,0x80004518
    80004504:	00078713          	mv	a4,a5
    80004508:	0404a783          	lw	a5,64(s1)
    8000450c:	00078e63          	beqz	a5,0x80004528
    80004510:	0484b483          	ld	s1,72(s1)
    80004514:	fee49ae3          	bne	s1,a4,0x80004508
    80004518:	00006517          	auipc	a0,0x6
    8000451c:	0f850513          	addi	a0,a0,248 # 0x8000a610
    80004520:	ffffc097          	auipc	ra,0xffffc
    80004524:	560080e7          	jalr	1376(ra) # 0x80000a80
    80004528:	0124a423          	sw	s2,8(s1)
    8000452c:	0134a623          	sw	s3,12(s1)
    80004530:	0004a023          	sw	zero,0(s1)
    80004534:	00100793          	li	a5,1
    80004538:	04f4a023          	sw	a5,64(s1)
    8000453c:	00014517          	auipc	a0,0x14
    80004540:	3c450513          	addi	a0,a0,964 # 0x80018900
    80004544:	ffffd097          	auipc	ra,0xffffd
    80004548:	c4c080e7          	jalr	-948(ra) # 0x80001190
    8000454c:	01048513          	addi	a0,s1,16
    80004550:	00002097          	auipc	ra,0x2
    80004554:	d30080e7          	jalr	-720(ra) # 0x80006280
    80004558:	0004a783          	lw	a5,0(s1)
    8000455c:	02078263          	beqz	a5,0x80004580
    80004560:	00048513          	mv	a0,s1
    80004564:	02813083          	ld	ra,40(sp)
    80004568:	02013403          	ld	s0,32(sp)
    8000456c:	01813483          	ld	s1,24(sp)
    80004570:	01013903          	ld	s2,16(sp)
    80004574:	00813983          	ld	s3,8(sp)
    80004578:	03010113          	addi	sp,sp,48
    8000457c:	00008067          	ret
    80004580:	00000593          	li	a1,0
    80004584:	00048513          	mv	a0,s1
    80004588:	00004097          	auipc	ra,0x4
    8000458c:	1e4080e7          	jalr	484(ra) # 0x8000876c
    80004590:	00100793          	li	a5,1
    80004594:	00f4a023          	sw	a5,0(s1)
    80004598:	fc9ff06f          	j	0x80004560
    8000459c:	fe010113          	addi	sp,sp,-32
    800045a0:	00113c23          	sd	ra,24(sp)
    800045a4:	00813823          	sd	s0,16(sp)
    800045a8:	00913423          	sd	s1,8(sp)
    800045ac:	02010413          	addi	s0,sp,32
    800045b0:	00050493          	mv	s1,a0
    800045b4:	01050513          	addi	a0,a0,16
    800045b8:	00002097          	auipc	ra,0x2
    800045bc:	db4080e7          	jalr	-588(ra) # 0x8000636c
    800045c0:	02050463          	beqz	a0,0x800045e8
    800045c4:	00100593          	li	a1,1
    800045c8:	00048513          	mv	a0,s1
    800045cc:	00004097          	auipc	ra,0x4
    800045d0:	1a0080e7          	jalr	416(ra) # 0x8000876c
    800045d4:	01813083          	ld	ra,24(sp)
    800045d8:	01013403          	ld	s0,16(sp)
    800045dc:	00813483          	ld	s1,8(sp)
    800045e0:	02010113          	addi	sp,sp,32
    800045e4:	00008067          	ret
    800045e8:	00006517          	auipc	a0,0x6
    800045ec:	04050513          	addi	a0,a0,64 # 0x8000a628
    800045f0:	ffffc097          	auipc	ra,0xffffc
    800045f4:	490080e7          	jalr	1168(ra) # 0x80000a80
    800045f8:	fe010113          	addi	sp,sp,-32
    800045fc:	00113c23          	sd	ra,24(sp)
    80004600:	00813823          	sd	s0,16(sp)
    80004604:	00913423          	sd	s1,8(sp)
    80004608:	01213023          	sd	s2,0(sp)
    8000460c:	02010413          	addi	s0,sp,32
    80004610:	00050493          	mv	s1,a0
    80004614:	01050913          	addi	s2,a0,16
    80004618:	00090513          	mv	a0,s2
    8000461c:	00002097          	auipc	ra,0x2
    80004620:	d50080e7          	jalr	-688(ra) # 0x8000636c
    80004624:	08050e63          	beqz	a0,0x800046c0
    80004628:	00090513          	mv	a0,s2
    8000462c:	00002097          	auipc	ra,0x2
    80004630:	cdc080e7          	jalr	-804(ra) # 0x80006308
    80004634:	00014517          	auipc	a0,0x14
    80004638:	2cc50513          	addi	a0,a0,716 # 0x80018900
    8000463c:	ffffd097          	auipc	ra,0xffffd
    80004640:	a5c080e7          	jalr	-1444(ra) # 0x80001098
    80004644:	0404a783          	lw	a5,64(s1)
    80004648:	fff7879b          	addiw	a5,a5,-1
    8000464c:	0007871b          	sext.w	a4,a5
    80004650:	04f4a023          	sw	a5,64(s1)
    80004654:	04071263          	bnez	a4,0x80004698
    80004658:	0504b783          	ld	a5,80(s1)
    8000465c:	0484b703          	ld	a4,72(s1)
    80004660:	04e7b423          	sd	a4,72(a5)
    80004664:	0484b783          	ld	a5,72(s1)
    80004668:	0504b703          	ld	a4,80(s1)
    8000466c:	04e7b823          	sd	a4,80(a5)
    80004670:	0001c797          	auipc	a5,0x1c
    80004674:	29078793          	addi	a5,a5,656 # 0x80020900
    80004678:	2b87b703          	ld	a4,696(a5)
    8000467c:	04e4b823          	sd	a4,80(s1)
    80004680:	0001c717          	auipc	a4,0x1c
    80004684:	4e870713          	addi	a4,a4,1256 # 0x80020b68
    80004688:	04e4b423          	sd	a4,72(s1)
    8000468c:	2b87b703          	ld	a4,696(a5)
    80004690:	04973423          	sd	s1,72(a4)
    80004694:	2a97bc23          	sd	s1,696(a5)
    80004698:	00014517          	auipc	a0,0x14
    8000469c:	26850513          	addi	a0,a0,616 # 0x80018900
    800046a0:	ffffd097          	auipc	ra,0xffffd
    800046a4:	af0080e7          	jalr	-1296(ra) # 0x80001190
    800046a8:	01813083          	ld	ra,24(sp)
    800046ac:	01013403          	ld	s0,16(sp)
    800046b0:	00813483          	ld	s1,8(sp)
    800046b4:	00013903          	ld	s2,0(sp)
    800046b8:	02010113          	addi	sp,sp,32
    800046bc:	00008067          	ret
    800046c0:	00006517          	auipc	a0,0x6
    800046c4:	f7050513          	addi	a0,a0,-144 # 0x8000a630
    800046c8:	ffffc097          	auipc	ra,0xffffc
    800046cc:	3b8080e7          	jalr	952(ra) # 0x80000a80
    800046d0:	fe010113          	addi	sp,sp,-32
    800046d4:	00113c23          	sd	ra,24(sp)
    800046d8:	00813823          	sd	s0,16(sp)
    800046dc:	00913423          	sd	s1,8(sp)
    800046e0:	02010413          	addi	s0,sp,32
    800046e4:	00050493          	mv	s1,a0
    800046e8:	00014517          	auipc	a0,0x14
    800046ec:	21850513          	addi	a0,a0,536 # 0x80018900
    800046f0:	ffffd097          	auipc	ra,0xffffd
    800046f4:	9a8080e7          	jalr	-1624(ra) # 0x80001098
    800046f8:	0404a783          	lw	a5,64(s1)
    800046fc:	0017879b          	addiw	a5,a5,1
    80004700:	04f4a023          	sw	a5,64(s1)
    80004704:	00014517          	auipc	a0,0x14
    80004708:	1fc50513          	addi	a0,a0,508 # 0x80018900
    8000470c:	ffffd097          	auipc	ra,0xffffd
    80004710:	a84080e7          	jalr	-1404(ra) # 0x80001190
    80004714:	01813083          	ld	ra,24(sp)
    80004718:	01013403          	ld	s0,16(sp)
    8000471c:	00813483          	ld	s1,8(sp)
    80004720:	02010113          	addi	sp,sp,32
    80004724:	00008067          	ret
    80004728:	fe010113          	addi	sp,sp,-32
    8000472c:	00113c23          	sd	ra,24(sp)
    80004730:	00813823          	sd	s0,16(sp)
    80004734:	00913423          	sd	s1,8(sp)
    80004738:	02010413          	addi	s0,sp,32
    8000473c:	00050493          	mv	s1,a0
    80004740:	00014517          	auipc	a0,0x14
    80004744:	1c050513          	addi	a0,a0,448 # 0x80018900
    80004748:	ffffd097          	auipc	ra,0xffffd
    8000474c:	950080e7          	jalr	-1712(ra) # 0x80001098
    80004750:	0404a783          	lw	a5,64(s1)
    80004754:	fff7879b          	addiw	a5,a5,-1
    80004758:	04f4a023          	sw	a5,64(s1)
    8000475c:	00014517          	auipc	a0,0x14
    80004760:	1a450513          	addi	a0,a0,420 # 0x80018900
    80004764:	ffffd097          	auipc	ra,0xffffd
    80004768:	a2c080e7          	jalr	-1492(ra) # 0x80001190
    8000476c:	01813083          	ld	ra,24(sp)
    80004770:	01013403          	ld	s0,16(sp)
    80004774:	00813483          	ld	s1,8(sp)
    80004778:	02010113          	addi	sp,sp,32
    8000477c:	00008067          	ret
    80004780:	fe010113          	addi	sp,sp,-32
    80004784:	00113c23          	sd	ra,24(sp)
    80004788:	00813823          	sd	s0,16(sp)
    8000478c:	00913423          	sd	s1,8(sp)
    80004790:	01213023          	sd	s2,0(sp)
    80004794:	02010413          	addi	s0,sp,32
    80004798:	00058493          	mv	s1,a1
    8000479c:	00d5d59b          	srliw	a1,a1,0xd
    800047a0:	0001d797          	auipc	a5,0x1d
    800047a4:	83c7a783          	lw	a5,-1988(a5) # 0x80020fdc
    800047a8:	00f585bb          	addw	a1,a1,a5
    800047ac:	00000097          	auipc	ra,0x0
    800047b0:	cb0080e7          	jalr	-848(ra) # 0x8000445c
    800047b4:	0074f713          	andi	a4,s1,7
    800047b8:	00100793          	li	a5,1
    800047bc:	00e797bb          	sllw	a5,a5,a4
    800047c0:	03349493          	slli	s1,s1,0x33
    800047c4:	0364d493          	srli	s1,s1,0x36
    800047c8:	00950733          	add	a4,a0,s1
    800047cc:	05874703          	lbu	a4,88(a4)
    800047d0:	00e7f6b3          	and	a3,a5,a4
    800047d4:	04068263          	beqz	a3,0x80004818
    800047d8:	00050913          	mv	s2,a0
    800047dc:	009504b3          	add	s1,a0,s1
    800047e0:	fff7c793          	not	a5,a5
    800047e4:	00f77733          	and	a4,a4,a5
    800047e8:	04e48c23          	sb	a4,88(s1)
    800047ec:	00002097          	auipc	ra,0x2
    800047f0:	920080e7          	jalr	-1760(ra) # 0x8000610c
    800047f4:	00090513          	mv	a0,s2
    800047f8:	00000097          	auipc	ra,0x0
    800047fc:	e00080e7          	jalr	-512(ra) # 0x800045f8
    80004800:	01813083          	ld	ra,24(sp)
    80004804:	01013403          	ld	s0,16(sp)
    80004808:	00813483          	ld	s1,8(sp)
    8000480c:	00013903          	ld	s2,0(sp)
    80004810:	02010113          	addi	sp,sp,32
    80004814:	00008067          	ret
    80004818:	00006517          	auipc	a0,0x6
    8000481c:	e2050513          	addi	a0,a0,-480 # 0x8000a638
    80004820:	ffffc097          	auipc	ra,0xffffc
    80004824:	260080e7          	jalr	608(ra) # 0x80000a80
    80004828:	fa010113          	addi	sp,sp,-96
    8000482c:	04113c23          	sd	ra,88(sp)
    80004830:	04813823          	sd	s0,80(sp)
    80004834:	04913423          	sd	s1,72(sp)
    80004838:	05213023          	sd	s2,64(sp)
    8000483c:	03313c23          	sd	s3,56(sp)
    80004840:	03413823          	sd	s4,48(sp)
    80004844:	03513423          	sd	s5,40(sp)
    80004848:	03613023          	sd	s6,32(sp)
    8000484c:	01713c23          	sd	s7,24(sp)
    80004850:	01813823          	sd	s8,16(sp)
    80004854:	01913423          	sd	s9,8(sp)
    80004858:	06010413          	addi	s0,sp,96
    8000485c:	0001c797          	auipc	a5,0x1c
    80004860:	7687a783          	lw	a5,1896(a5) # 0x80020fc4
    80004864:	14078863          	beqz	a5,0x800049b4
    80004868:	00050b93          	mv	s7,a0
    8000486c:	00000a93          	li	s5,0
    80004870:	0001cb17          	auipc	s6,0x1c
    80004874:	750b0b13          	addi	s6,s6,1872 # 0x80020fc0
    80004878:	00000c13          	li	s8,0
    8000487c:	00100993          	li	s3,1
    80004880:	00002a37          	lui	s4,0x2
    80004884:	00002cb7          	lui	s9,0x2
    80004888:	0bc0006f          	j	0x80004944
    8000488c:	00f907b3          	add	a5,s2,a5
    80004890:	00d66633          	or	a2,a2,a3
    80004894:	04c78c23          	sb	a2,88(a5)
    80004898:	00090513          	mv	a0,s2
    8000489c:	00002097          	auipc	ra,0x2
    800048a0:	870080e7          	jalr	-1936(ra) # 0x8000610c
    800048a4:	00090513          	mv	a0,s2
    800048a8:	00000097          	auipc	ra,0x0
    800048ac:	d50080e7          	jalr	-688(ra) # 0x800045f8
    800048b0:	00048593          	mv	a1,s1
    800048b4:	000b8513          	mv	a0,s7
    800048b8:	00000097          	auipc	ra,0x0
    800048bc:	ba4080e7          	jalr	-1116(ra) # 0x8000445c
    800048c0:	00050913          	mv	s2,a0
    800048c4:	40000613          	li	a2,1024
    800048c8:	00000593          	li	a1,0
    800048cc:	05850513          	addi	a0,a0,88
    800048d0:	ffffd097          	auipc	ra,0xffffd
    800048d4:	920080e7          	jalr	-1760(ra) # 0x800011f0
    800048d8:	00090513          	mv	a0,s2
    800048dc:	00002097          	auipc	ra,0x2
    800048e0:	830080e7          	jalr	-2000(ra) # 0x8000610c
    800048e4:	00090513          	mv	a0,s2
    800048e8:	00000097          	auipc	ra,0x0
    800048ec:	d10080e7          	jalr	-752(ra) # 0x800045f8
    800048f0:	00048513          	mv	a0,s1
    800048f4:	05813083          	ld	ra,88(sp)
    800048f8:	05013403          	ld	s0,80(sp)
    800048fc:	04813483          	ld	s1,72(sp)
    80004900:	04013903          	ld	s2,64(sp)
    80004904:	03813983          	ld	s3,56(sp)
    80004908:	03013a03          	ld	s4,48(sp)
    8000490c:	02813a83          	ld	s5,40(sp)
    80004910:	02013b03          	ld	s6,32(sp)
    80004914:	01813b83          	ld	s7,24(sp)
    80004918:	01013c03          	ld	s8,16(sp)
    8000491c:	00813c83          	ld	s9,8(sp)
    80004920:	06010113          	addi	sp,sp,96
    80004924:	00008067          	ret
    80004928:	00090513          	mv	a0,s2
    8000492c:	00000097          	auipc	ra,0x0
    80004930:	ccc080e7          	jalr	-820(ra) # 0x800045f8
    80004934:	015c87bb          	addw	a5,s9,s5
    80004938:	00078a9b          	sext.w	s5,a5
    8000493c:	004b2703          	lw	a4,4(s6)
    80004940:	06eafa63          	bgeu	s5,a4,0x800049b4
    80004944:	41fad79b          	sraiw	a5,s5,0x1f
    80004948:	0137d79b          	srliw	a5,a5,0x13
    8000494c:	015787bb          	addw	a5,a5,s5
    80004950:	40d7d79b          	sraiw	a5,a5,0xd
    80004954:	01cb2583          	lw	a1,28(s6)
    80004958:	00b785bb          	addw	a1,a5,a1
    8000495c:	000b8513          	mv	a0,s7
    80004960:	00000097          	auipc	ra,0x0
    80004964:	afc080e7          	jalr	-1284(ra) # 0x8000445c
    80004968:	00050913          	mv	s2,a0
    8000496c:	004b2503          	lw	a0,4(s6)
    80004970:	000a849b          	sext.w	s1,s5
    80004974:	000c0713          	mv	a4,s8
    80004978:	faa4f8e3          	bgeu	s1,a0,0x80004928
    8000497c:	00777693          	andi	a3,a4,7
    80004980:	00d996bb          	sllw	a3,s3,a3
    80004984:	41f7579b          	sraiw	a5,a4,0x1f
    80004988:	01d7d79b          	srliw	a5,a5,0x1d
    8000498c:	00e787bb          	addw	a5,a5,a4
    80004990:	4037d79b          	sraiw	a5,a5,0x3
    80004994:	00f90633          	add	a2,s2,a5
    80004998:	05864603          	lbu	a2,88(a2)
    8000499c:	00c6f5b3          	and	a1,a3,a2
    800049a0:	ee0586e3          	beqz	a1,0x8000488c
    800049a4:	0017071b          	addiw	a4,a4,1
    800049a8:	0014849b          	addiw	s1,s1,1
    800049ac:	fd4716e3          	bne	a4,s4,0x80004978
    800049b0:	f79ff06f          	j	0x80004928
    800049b4:	00006517          	auipc	a0,0x6
    800049b8:	c9c50513          	addi	a0,a0,-868 # 0x8000a650
    800049bc:	ffffc097          	auipc	ra,0xffffc
    800049c0:	cec080e7          	jalr	-788(ra) # 0x800006a8
    800049c4:	00000493          	li	s1,0
    800049c8:	f29ff06f          	j	0x800048f0
    800049cc:	fd010113          	addi	sp,sp,-48
    800049d0:	02113423          	sd	ra,40(sp)
    800049d4:	02813023          	sd	s0,32(sp)
    800049d8:	00913c23          	sd	s1,24(sp)
    800049dc:	01213823          	sd	s2,16(sp)
    800049e0:	01313423          	sd	s3,8(sp)
    800049e4:	01413023          	sd	s4,0(sp)
    800049e8:	03010413          	addi	s0,sp,48
    800049ec:	00050993          	mv	s3,a0
    800049f0:	00b00793          	li	a5,11
    800049f4:	02b7ea63          	bltu	a5,a1,0x80004a28
    800049f8:	02059793          	slli	a5,a1,0x20
    800049fc:	01e7d593          	srli	a1,a5,0x1e
    80004a00:	00b504b3          	add	s1,a0,a1
    80004a04:	0504a903          	lw	s2,80(s1)
    80004a08:	08091463          	bnez	s2,0x80004a90
    80004a0c:	00052503          	lw	a0,0(a0)
    80004a10:	00000097          	auipc	ra,0x0
    80004a14:	e18080e7          	jalr	-488(ra) # 0x80004828
    80004a18:	0005091b          	sext.w	s2,a0
    80004a1c:	06090a63          	beqz	s2,0x80004a90
    80004a20:	0524a823          	sw	s2,80(s1)
    80004a24:	06c0006f          	j	0x80004a90
    80004a28:	ff45849b          	addiw	s1,a1,-12
    80004a2c:	0004871b          	sext.w	a4,s1
    80004a30:	0ff00793          	li	a5,255
    80004a34:	0ae7e463          	bltu	a5,a4,0x80004adc
    80004a38:	08052903          	lw	s2,128(a0)
    80004a3c:	00091e63          	bnez	s2,0x80004a58
    80004a40:	00052503          	lw	a0,0(a0)
    80004a44:	00000097          	auipc	ra,0x0
    80004a48:	de4080e7          	jalr	-540(ra) # 0x80004828
    80004a4c:	0005091b          	sext.w	s2,a0
    80004a50:	04090063          	beqz	s2,0x80004a90
    80004a54:	0929a023          	sw	s2,128(s3)
    80004a58:	00090593          	mv	a1,s2
    80004a5c:	0009a503          	lw	a0,0(s3)
    80004a60:	00000097          	auipc	ra,0x0
    80004a64:	9fc080e7          	jalr	-1540(ra) # 0x8000445c
    80004a68:	00050a13          	mv	s4,a0
    80004a6c:	05850793          	addi	a5,a0,88
    80004a70:	02049713          	slli	a4,s1,0x20
    80004a74:	01e75593          	srli	a1,a4,0x1e
    80004a78:	00b784b3          	add	s1,a5,a1
    80004a7c:	0004a903          	lw	s2,0(s1)
    80004a80:	02090a63          	beqz	s2,0x80004ab4
    80004a84:	000a0513          	mv	a0,s4
    80004a88:	00000097          	auipc	ra,0x0
    80004a8c:	b70080e7          	jalr	-1168(ra) # 0x800045f8
    80004a90:	00090513          	mv	a0,s2
    80004a94:	02813083          	ld	ra,40(sp)
    80004a98:	02013403          	ld	s0,32(sp)
    80004a9c:	01813483          	ld	s1,24(sp)
    80004aa0:	01013903          	ld	s2,16(sp)
    80004aa4:	00813983          	ld	s3,8(sp)
    80004aa8:	00013a03          	ld	s4,0(sp)
    80004aac:	03010113          	addi	sp,sp,48
    80004ab0:	00008067          	ret
    80004ab4:	0009a503          	lw	a0,0(s3)
    80004ab8:	00000097          	auipc	ra,0x0
    80004abc:	d70080e7          	jalr	-656(ra) # 0x80004828
    80004ac0:	0005091b          	sext.w	s2,a0
    80004ac4:	fc0900e3          	beqz	s2,0x80004a84
    80004ac8:	0124a023          	sw	s2,0(s1)
    80004acc:	000a0513          	mv	a0,s4
    80004ad0:	00001097          	auipc	ra,0x1
    80004ad4:	63c080e7          	jalr	1596(ra) # 0x8000610c
    80004ad8:	fadff06f          	j	0x80004a84
    80004adc:	00006517          	auipc	a0,0x6
    80004ae0:	b8c50513          	addi	a0,a0,-1140 # 0x8000a668
    80004ae4:	ffffc097          	auipc	ra,0xffffc
    80004ae8:	f9c080e7          	jalr	-100(ra) # 0x80000a80
    80004aec:	fd010113          	addi	sp,sp,-48
    80004af0:	02113423          	sd	ra,40(sp)
    80004af4:	02813023          	sd	s0,32(sp)
    80004af8:	00913c23          	sd	s1,24(sp)
    80004afc:	01213823          	sd	s2,16(sp)
    80004b00:	01313423          	sd	s3,8(sp)
    80004b04:	01413023          	sd	s4,0(sp)
    80004b08:	03010413          	addi	s0,sp,48
    80004b0c:	00050993          	mv	s3,a0
    80004b10:	00058a13          	mv	s4,a1
    80004b14:	0001c517          	auipc	a0,0x1c
    80004b18:	4cc50513          	addi	a0,a0,1228 # 0x80020fe0
    80004b1c:	ffffc097          	auipc	ra,0xffffc
    80004b20:	57c080e7          	jalr	1404(ra) # 0x80001098
    80004b24:	00000913          	li	s2,0
    80004b28:	0001c497          	auipc	s1,0x1c
    80004b2c:	4d048493          	addi	s1,s1,1232 # 0x80020ff8
    80004b30:	0001e697          	auipc	a3,0x1e
    80004b34:	f5868693          	addi	a3,a3,-168 # 0x80022a88
    80004b38:	0100006f          	j	0x80004b48
    80004b3c:	04090263          	beqz	s2,0x80004b80
    80004b40:	08848493          	addi	s1,s1,136
    80004b44:	04d48463          	beq	s1,a3,0x80004b8c
    80004b48:	0084a783          	lw	a5,8(s1)
    80004b4c:	fef058e3          	blez	a5,0x80004b3c
    80004b50:	0004a703          	lw	a4,0(s1)
    80004b54:	ff3714e3          	bne	a4,s3,0x80004b3c
    80004b58:	0044a703          	lw	a4,4(s1)
    80004b5c:	ff4710e3          	bne	a4,s4,0x80004b3c
    80004b60:	0017879b          	addiw	a5,a5,1
    80004b64:	00f4a423          	sw	a5,8(s1)
    80004b68:	0001c517          	auipc	a0,0x1c
    80004b6c:	47850513          	addi	a0,a0,1144 # 0x80020fe0
    80004b70:	ffffc097          	auipc	ra,0xffffc
    80004b74:	620080e7          	jalr	1568(ra) # 0x80001190
    80004b78:	00048913          	mv	s2,s1
    80004b7c:	0380006f          	j	0x80004bb4
    80004b80:	fc0790e3          	bnez	a5,0x80004b40
    80004b84:	00048913          	mv	s2,s1
    80004b88:	fb9ff06f          	j	0x80004b40
    80004b8c:	04090663          	beqz	s2,0x80004bd8
    80004b90:	01392023          	sw	s3,0(s2)
    80004b94:	01492223          	sw	s4,4(s2)
    80004b98:	00100793          	li	a5,1
    80004b9c:	00f92423          	sw	a5,8(s2)
    80004ba0:	04092023          	sw	zero,64(s2)
    80004ba4:	0001c517          	auipc	a0,0x1c
    80004ba8:	43c50513          	addi	a0,a0,1084 # 0x80020fe0
    80004bac:	ffffc097          	auipc	ra,0xffffc
    80004bb0:	5e4080e7          	jalr	1508(ra) # 0x80001190
    80004bb4:	00090513          	mv	a0,s2
    80004bb8:	02813083          	ld	ra,40(sp)
    80004bbc:	02013403          	ld	s0,32(sp)
    80004bc0:	01813483          	ld	s1,24(sp)
    80004bc4:	01013903          	ld	s2,16(sp)
    80004bc8:	00813983          	ld	s3,8(sp)
    80004bcc:	00013a03          	ld	s4,0(sp)
    80004bd0:	03010113          	addi	sp,sp,48
    80004bd4:	00008067          	ret
    80004bd8:	00006517          	auipc	a0,0x6
    80004bdc:	aa850513          	addi	a0,a0,-1368 # 0x8000a680
    80004be0:	ffffc097          	auipc	ra,0xffffc
    80004be4:	ea0080e7          	jalr	-352(ra) # 0x80000a80
    80004be8:	fd010113          	addi	sp,sp,-48
    80004bec:	02113423          	sd	ra,40(sp)
    80004bf0:	02813023          	sd	s0,32(sp)
    80004bf4:	00913c23          	sd	s1,24(sp)
    80004bf8:	01213823          	sd	s2,16(sp)
    80004bfc:	01313423          	sd	s3,8(sp)
    80004c00:	03010413          	addi	s0,sp,48
    80004c04:	00006597          	auipc	a1,0x6
    80004c08:	a8c58593          	addi	a1,a1,-1396 # 0x8000a690
    80004c0c:	0001c517          	auipc	a0,0x1c
    80004c10:	3d450513          	addi	a0,a0,980 # 0x80020fe0
    80004c14:	ffffc097          	auipc	ra,0xffffc
    80004c18:	3a0080e7          	jalr	928(ra) # 0x80000fb4
    80004c1c:	0001c497          	auipc	s1,0x1c
    80004c20:	3ec48493          	addi	s1,s1,1004 # 0x80021008
    80004c24:	0001e997          	auipc	s3,0x1e
    80004c28:	e7498993          	addi	s3,s3,-396 # 0x80022a98
    80004c2c:	00006917          	auipc	s2,0x6
    80004c30:	a6c90913          	addi	s2,s2,-1428 # 0x8000a698
    80004c34:	00090593          	mv	a1,s2
    80004c38:	00048513          	mv	a0,s1
    80004c3c:	00001097          	auipc	ra,0x1
    80004c40:	5ec080e7          	jalr	1516(ra) # 0x80006228
    80004c44:	08848493          	addi	s1,s1,136
    80004c48:	ff3496e3          	bne	s1,s3,0x80004c34
    80004c4c:	02813083          	ld	ra,40(sp)
    80004c50:	02013403          	ld	s0,32(sp)
    80004c54:	01813483          	ld	s1,24(sp)
    80004c58:	01013903          	ld	s2,16(sp)
    80004c5c:	00813983          	ld	s3,8(sp)
    80004c60:	03010113          	addi	sp,sp,48
    80004c64:	00008067          	ret
    80004c68:	fb010113          	addi	sp,sp,-80
    80004c6c:	04113423          	sd	ra,72(sp)
    80004c70:	04813023          	sd	s0,64(sp)
    80004c74:	02913c23          	sd	s1,56(sp)
    80004c78:	03213823          	sd	s2,48(sp)
    80004c7c:	03313423          	sd	s3,40(sp)
    80004c80:	03413023          	sd	s4,32(sp)
    80004c84:	01513c23          	sd	s5,24(sp)
    80004c88:	01613823          	sd	s6,16(sp)
    80004c8c:	01713423          	sd	s7,8(sp)
    80004c90:	05010413          	addi	s0,sp,80
    80004c94:	0001c717          	auipc	a4,0x1c
    80004c98:	33872703          	lw	a4,824(a4) # 0x80020fcc
    80004c9c:	00100793          	li	a5,1
    80004ca0:	06e7f463          	bgeu	a5,a4,0x80004d08
    80004ca4:	00050a93          	mv	s5,a0
    80004ca8:	00058b93          	mv	s7,a1
    80004cac:	00100493          	li	s1,1
    80004cb0:	0001ca17          	auipc	s4,0x1c
    80004cb4:	310a0a13          	addi	s4,s4,784 # 0x80020fc0
    80004cb8:	00048b1b          	sext.w	s6,s1
    80004cbc:	0044d593          	srli	a1,s1,0x4
    80004cc0:	018a2783          	lw	a5,24(s4)
    80004cc4:	00b785bb          	addw	a1,a5,a1
    80004cc8:	000a8513          	mv	a0,s5
    80004ccc:	fffff097          	auipc	ra,0xfffff
    80004cd0:	790080e7          	jalr	1936(ra) # 0x8000445c
    80004cd4:	00050913          	mv	s2,a0
    80004cd8:	05850993          	addi	s3,a0,88
    80004cdc:	00f4f793          	andi	a5,s1,15
    80004ce0:	00679793          	slli	a5,a5,0x6
    80004ce4:	00f989b3          	add	s3,s3,a5
    80004ce8:	00099783          	lh	a5,0(s3)
    80004cec:	04078e63          	beqz	a5,0x80004d48
    80004cf0:	00000097          	auipc	ra,0x0
    80004cf4:	908080e7          	jalr	-1784(ra) # 0x800045f8
    80004cf8:	00148493          	addi	s1,s1,1
    80004cfc:	00ca2703          	lw	a4,12(s4)
    80004d00:	0004879b          	sext.w	a5,s1
    80004d04:	fae7eae3          	bltu	a5,a4,0x80004cb8
    80004d08:	00006517          	auipc	a0,0x6
    80004d0c:	99850513          	addi	a0,a0,-1640 # 0x8000a6a0
    80004d10:	ffffc097          	auipc	ra,0xffffc
    80004d14:	998080e7          	jalr	-1640(ra) # 0x800006a8
    80004d18:	00000513          	li	a0,0
    80004d1c:	04813083          	ld	ra,72(sp)
    80004d20:	04013403          	ld	s0,64(sp)
    80004d24:	03813483          	ld	s1,56(sp)
    80004d28:	03013903          	ld	s2,48(sp)
    80004d2c:	02813983          	ld	s3,40(sp)
    80004d30:	02013a03          	ld	s4,32(sp)
    80004d34:	01813a83          	ld	s5,24(sp)
    80004d38:	01013b03          	ld	s6,16(sp)
    80004d3c:	00813b83          	ld	s7,8(sp)
    80004d40:	05010113          	addi	sp,sp,80
    80004d44:	00008067          	ret
    80004d48:	04000613          	li	a2,64
    80004d4c:	00000593          	li	a1,0
    80004d50:	00098513          	mv	a0,s3
    80004d54:	ffffc097          	auipc	ra,0xffffc
    80004d58:	49c080e7          	jalr	1180(ra) # 0x800011f0
    80004d5c:	01799023          	sh	s7,0(s3)
    80004d60:	00090513          	mv	a0,s2
    80004d64:	00001097          	auipc	ra,0x1
    80004d68:	3a8080e7          	jalr	936(ra) # 0x8000610c
    80004d6c:	00090513          	mv	a0,s2
    80004d70:	00000097          	auipc	ra,0x0
    80004d74:	888080e7          	jalr	-1912(ra) # 0x800045f8
    80004d78:	000b0593          	mv	a1,s6
    80004d7c:	000a8513          	mv	a0,s5
    80004d80:	00000097          	auipc	ra,0x0
    80004d84:	d6c080e7          	jalr	-660(ra) # 0x80004aec
    80004d88:	f95ff06f          	j	0x80004d1c
    80004d8c:	fe010113          	addi	sp,sp,-32
    80004d90:	00113c23          	sd	ra,24(sp)
    80004d94:	00813823          	sd	s0,16(sp)
    80004d98:	00913423          	sd	s1,8(sp)
    80004d9c:	01213023          	sd	s2,0(sp)
    80004da0:	02010413          	addi	s0,sp,32
    80004da4:	00050493          	mv	s1,a0
    80004da8:	00452783          	lw	a5,4(a0)
    80004dac:	0047d79b          	srliw	a5,a5,0x4
    80004db0:	0001c597          	auipc	a1,0x1c
    80004db4:	2285a583          	lw	a1,552(a1) # 0x80020fd8
    80004db8:	00b785bb          	addw	a1,a5,a1
    80004dbc:	00052503          	lw	a0,0(a0)
    80004dc0:	fffff097          	auipc	ra,0xfffff
    80004dc4:	69c080e7          	jalr	1692(ra) # 0x8000445c
    80004dc8:	00050913          	mv	s2,a0
    80004dcc:	05850793          	addi	a5,a0,88
    80004dd0:	0044a703          	lw	a4,4(s1)
    80004dd4:	00f77713          	andi	a4,a4,15
    80004dd8:	00671713          	slli	a4,a4,0x6
    80004ddc:	00e787b3          	add	a5,a5,a4
    80004de0:	04449703          	lh	a4,68(s1)
    80004de4:	00e79023          	sh	a4,0(a5)
    80004de8:	04649703          	lh	a4,70(s1)
    80004dec:	00e79123          	sh	a4,2(a5)
    80004df0:	04849703          	lh	a4,72(s1)
    80004df4:	00e79223          	sh	a4,4(a5)
    80004df8:	04a49703          	lh	a4,74(s1)
    80004dfc:	00e79323          	sh	a4,6(a5)
    80004e00:	04c4a703          	lw	a4,76(s1)
    80004e04:	00e7a423          	sw	a4,8(a5)
    80004e08:	03400613          	li	a2,52
    80004e0c:	05048593          	addi	a1,s1,80
    80004e10:	00c78513          	addi	a0,a5,12
    80004e14:	ffffc097          	auipc	ra,0xffffc
    80004e18:	470080e7          	jalr	1136(ra) # 0x80001284
    80004e1c:	00090513          	mv	a0,s2
    80004e20:	00001097          	auipc	ra,0x1
    80004e24:	2ec080e7          	jalr	748(ra) # 0x8000610c
    80004e28:	00090513          	mv	a0,s2
    80004e2c:	fffff097          	auipc	ra,0xfffff
    80004e30:	7cc080e7          	jalr	1996(ra) # 0x800045f8
    80004e34:	01813083          	ld	ra,24(sp)
    80004e38:	01013403          	ld	s0,16(sp)
    80004e3c:	00813483          	ld	s1,8(sp)
    80004e40:	00013903          	ld	s2,0(sp)
    80004e44:	02010113          	addi	sp,sp,32
    80004e48:	00008067          	ret
    80004e4c:	fe010113          	addi	sp,sp,-32
    80004e50:	00113c23          	sd	ra,24(sp)
    80004e54:	00813823          	sd	s0,16(sp)
    80004e58:	00913423          	sd	s1,8(sp)
    80004e5c:	02010413          	addi	s0,sp,32
    80004e60:	00050493          	mv	s1,a0
    80004e64:	0001c517          	auipc	a0,0x1c
    80004e68:	17c50513          	addi	a0,a0,380 # 0x80020fe0
    80004e6c:	ffffc097          	auipc	ra,0xffffc
    80004e70:	22c080e7          	jalr	556(ra) # 0x80001098
    80004e74:	0084a783          	lw	a5,8(s1)
    80004e78:	0017879b          	addiw	a5,a5,1
    80004e7c:	00f4a423          	sw	a5,8(s1)
    80004e80:	0001c517          	auipc	a0,0x1c
    80004e84:	16050513          	addi	a0,a0,352 # 0x80020fe0
    80004e88:	ffffc097          	auipc	ra,0xffffc
    80004e8c:	308080e7          	jalr	776(ra) # 0x80001190
    80004e90:	00048513          	mv	a0,s1
    80004e94:	01813083          	ld	ra,24(sp)
    80004e98:	01013403          	ld	s0,16(sp)
    80004e9c:	00813483          	ld	s1,8(sp)
    80004ea0:	02010113          	addi	sp,sp,32
    80004ea4:	00008067          	ret
    80004ea8:	fe010113          	addi	sp,sp,-32
    80004eac:	00113c23          	sd	ra,24(sp)
    80004eb0:	00813823          	sd	s0,16(sp)
    80004eb4:	00913423          	sd	s1,8(sp)
    80004eb8:	01213023          	sd	s2,0(sp)
    80004ebc:	02010413          	addi	s0,sp,32
    80004ec0:	02050e63          	beqz	a0,0x80004efc
    80004ec4:	00050493          	mv	s1,a0
    80004ec8:	00852783          	lw	a5,8(a0)
    80004ecc:	02f05863          	blez	a5,0x80004efc
    80004ed0:	01050513          	addi	a0,a0,16
    80004ed4:	00001097          	auipc	ra,0x1
    80004ed8:	3ac080e7          	jalr	940(ra) # 0x80006280
    80004edc:	0404a783          	lw	a5,64(s1)
    80004ee0:	02078663          	beqz	a5,0x80004f0c
    80004ee4:	01813083          	ld	ra,24(sp)
    80004ee8:	01013403          	ld	s0,16(sp)
    80004eec:	00813483          	ld	s1,8(sp)
    80004ef0:	00013903          	ld	s2,0(sp)
    80004ef4:	02010113          	addi	sp,sp,32
    80004ef8:	00008067          	ret
    80004efc:	00005517          	auipc	a0,0x5
    80004f00:	7bc50513          	addi	a0,a0,1980 # 0x8000a6b8
    80004f04:	ffffc097          	auipc	ra,0xffffc
    80004f08:	b7c080e7          	jalr	-1156(ra) # 0x80000a80
    80004f0c:	0044a783          	lw	a5,4(s1)
    80004f10:	0047d79b          	srliw	a5,a5,0x4
    80004f14:	0001c597          	auipc	a1,0x1c
    80004f18:	0c45a583          	lw	a1,196(a1) # 0x80020fd8
    80004f1c:	00b785bb          	addw	a1,a5,a1
    80004f20:	0004a503          	lw	a0,0(s1)
    80004f24:	fffff097          	auipc	ra,0xfffff
    80004f28:	538080e7          	jalr	1336(ra) # 0x8000445c
    80004f2c:	00050913          	mv	s2,a0
    80004f30:	05850593          	addi	a1,a0,88
    80004f34:	0044a783          	lw	a5,4(s1)
    80004f38:	00f7f793          	andi	a5,a5,15
    80004f3c:	00679793          	slli	a5,a5,0x6
    80004f40:	00f585b3          	add	a1,a1,a5
    80004f44:	00059783          	lh	a5,0(a1)
    80004f48:	04f49223          	sh	a5,68(s1)
    80004f4c:	00259783          	lh	a5,2(a1)
    80004f50:	04f49323          	sh	a5,70(s1)
    80004f54:	00459783          	lh	a5,4(a1)
    80004f58:	04f49423          	sh	a5,72(s1)
    80004f5c:	00659783          	lh	a5,6(a1)
    80004f60:	04f49523          	sh	a5,74(s1)
    80004f64:	0085a783          	lw	a5,8(a1)
    80004f68:	04f4a623          	sw	a5,76(s1)
    80004f6c:	03400613          	li	a2,52
    80004f70:	00c58593          	addi	a1,a1,12
    80004f74:	05048513          	addi	a0,s1,80
    80004f78:	ffffc097          	auipc	ra,0xffffc
    80004f7c:	30c080e7          	jalr	780(ra) # 0x80001284
    80004f80:	00090513          	mv	a0,s2
    80004f84:	fffff097          	auipc	ra,0xfffff
    80004f88:	674080e7          	jalr	1652(ra) # 0x800045f8
    80004f8c:	00100793          	li	a5,1
    80004f90:	04f4a023          	sw	a5,64(s1)
    80004f94:	04449783          	lh	a5,68(s1)
    80004f98:	f40796e3          	bnez	a5,0x80004ee4
    80004f9c:	00005517          	auipc	a0,0x5
    80004fa0:	72450513          	addi	a0,a0,1828 # 0x8000a6c0
    80004fa4:	ffffc097          	auipc	ra,0xffffc
    80004fa8:	adc080e7          	jalr	-1316(ra) # 0x80000a80
    80004fac:	fe010113          	addi	sp,sp,-32
    80004fb0:	00113c23          	sd	ra,24(sp)
    80004fb4:	00813823          	sd	s0,16(sp)
    80004fb8:	00913423          	sd	s1,8(sp)
    80004fbc:	01213023          	sd	s2,0(sp)
    80004fc0:	02010413          	addi	s0,sp,32
    80004fc4:	04050463          	beqz	a0,0x8000500c
    80004fc8:	00050493          	mv	s1,a0
    80004fcc:	01050913          	addi	s2,a0,16
    80004fd0:	00090513          	mv	a0,s2
    80004fd4:	00001097          	auipc	ra,0x1
    80004fd8:	398080e7          	jalr	920(ra) # 0x8000636c
    80004fdc:	02050863          	beqz	a0,0x8000500c
    80004fe0:	0084a783          	lw	a5,8(s1)
    80004fe4:	02f05463          	blez	a5,0x8000500c
    80004fe8:	00090513          	mv	a0,s2
    80004fec:	00001097          	auipc	ra,0x1
    80004ff0:	31c080e7          	jalr	796(ra) # 0x80006308
    80004ff4:	01813083          	ld	ra,24(sp)
    80004ff8:	01013403          	ld	s0,16(sp)
    80004ffc:	00813483          	ld	s1,8(sp)
    80005000:	00013903          	ld	s2,0(sp)
    80005004:	02010113          	addi	sp,sp,32
    80005008:	00008067          	ret
    8000500c:	00005517          	auipc	a0,0x5
    80005010:	6c450513          	addi	a0,a0,1732 # 0x8000a6d0
    80005014:	ffffc097          	auipc	ra,0xffffc
    80005018:	a6c080e7          	jalr	-1428(ra) # 0x80000a80
    8000501c:	fd010113          	addi	sp,sp,-48
    80005020:	02113423          	sd	ra,40(sp)
    80005024:	02813023          	sd	s0,32(sp)
    80005028:	00913c23          	sd	s1,24(sp)
    8000502c:	01213823          	sd	s2,16(sp)
    80005030:	01313423          	sd	s3,8(sp)
    80005034:	01413023          	sd	s4,0(sp)
    80005038:	03010413          	addi	s0,sp,48
    8000503c:	00050993          	mv	s3,a0
    80005040:	05050493          	addi	s1,a0,80
    80005044:	08050913          	addi	s2,a0,128
    80005048:	00c0006f          	j	0x80005054
    8000504c:	00448493          	addi	s1,s1,4
    80005050:	03248063          	beq	s1,s2,0x80005070
    80005054:	0004a583          	lw	a1,0(s1)
    80005058:	fe058ae3          	beqz	a1,0x8000504c
    8000505c:	0009a503          	lw	a0,0(s3)
    80005060:	fffff097          	auipc	ra,0xfffff
    80005064:	720080e7          	jalr	1824(ra) # 0x80004780
    80005068:	0004a023          	sw	zero,0(s1)
    8000506c:	fe1ff06f          	j	0x8000504c
    80005070:	0809a583          	lw	a1,128(s3)
    80005074:	02059a63          	bnez	a1,0x800050a8
    80005078:	0409a623          	sw	zero,76(s3)
    8000507c:	00098513          	mv	a0,s3
    80005080:	00000097          	auipc	ra,0x0
    80005084:	d0c080e7          	jalr	-756(ra) # 0x80004d8c
    80005088:	02813083          	ld	ra,40(sp)
    8000508c:	02013403          	ld	s0,32(sp)
    80005090:	01813483          	ld	s1,24(sp)
    80005094:	01013903          	ld	s2,16(sp)
    80005098:	00813983          	ld	s3,8(sp)
    8000509c:	00013a03          	ld	s4,0(sp)
    800050a0:	03010113          	addi	sp,sp,48
    800050a4:	00008067          	ret
    800050a8:	0009a503          	lw	a0,0(s3)
    800050ac:	fffff097          	auipc	ra,0xfffff
    800050b0:	3b0080e7          	jalr	944(ra) # 0x8000445c
    800050b4:	00050a13          	mv	s4,a0
    800050b8:	05850493          	addi	s1,a0,88
    800050bc:	45850913          	addi	s2,a0,1112
    800050c0:	00c0006f          	j	0x800050cc
    800050c4:	00448493          	addi	s1,s1,4
    800050c8:	01248e63          	beq	s1,s2,0x800050e4
    800050cc:	0004a583          	lw	a1,0(s1)
    800050d0:	fe058ae3          	beqz	a1,0x800050c4
    800050d4:	0009a503          	lw	a0,0(s3)
    800050d8:	fffff097          	auipc	ra,0xfffff
    800050dc:	6a8080e7          	jalr	1704(ra) # 0x80004780
    800050e0:	fe5ff06f          	j	0x800050c4
    800050e4:	000a0513          	mv	a0,s4
    800050e8:	fffff097          	auipc	ra,0xfffff
    800050ec:	510080e7          	jalr	1296(ra) # 0x800045f8
    800050f0:	0809a583          	lw	a1,128(s3)
    800050f4:	0009a503          	lw	a0,0(s3)
    800050f8:	fffff097          	auipc	ra,0xfffff
    800050fc:	688080e7          	jalr	1672(ra) # 0x80004780
    80005100:	0809a023          	sw	zero,128(s3)
    80005104:	f75ff06f          	j	0x80005078
    80005108:	fe010113          	addi	sp,sp,-32
    8000510c:	00113c23          	sd	ra,24(sp)
    80005110:	00813823          	sd	s0,16(sp)
    80005114:	00913423          	sd	s1,8(sp)
    80005118:	01213023          	sd	s2,0(sp)
    8000511c:	02010413          	addi	s0,sp,32
    80005120:	00050493          	mv	s1,a0
    80005124:	0001c517          	auipc	a0,0x1c
    80005128:	ebc50513          	addi	a0,a0,-324 # 0x80020fe0
    8000512c:	ffffc097          	auipc	ra,0xffffc
    80005130:	f6c080e7          	jalr	-148(ra) # 0x80001098
    80005134:	0084a703          	lw	a4,8(s1)
    80005138:	00100793          	li	a5,1
    8000513c:	02f70c63          	beq	a4,a5,0x80005174
    80005140:	0084a783          	lw	a5,8(s1)
    80005144:	fff7879b          	addiw	a5,a5,-1
    80005148:	00f4a423          	sw	a5,8(s1)
    8000514c:	0001c517          	auipc	a0,0x1c
    80005150:	e9450513          	addi	a0,a0,-364 # 0x80020fe0
    80005154:	ffffc097          	auipc	ra,0xffffc
    80005158:	03c080e7          	jalr	60(ra) # 0x80001190
    8000515c:	01813083          	ld	ra,24(sp)
    80005160:	01013403          	ld	s0,16(sp)
    80005164:	00813483          	ld	s1,8(sp)
    80005168:	00013903          	ld	s2,0(sp)
    8000516c:	02010113          	addi	sp,sp,32
    80005170:	00008067          	ret
    80005174:	0404a783          	lw	a5,64(s1)
    80005178:	fc0784e3          	beqz	a5,0x80005140
    8000517c:	04a49783          	lh	a5,74(s1)
    80005180:	fc0790e3          	bnez	a5,0x80005140
    80005184:	01048913          	addi	s2,s1,16
    80005188:	00090513          	mv	a0,s2
    8000518c:	00001097          	auipc	ra,0x1
    80005190:	0f4080e7          	jalr	244(ra) # 0x80006280
    80005194:	0001c517          	auipc	a0,0x1c
    80005198:	e4c50513          	addi	a0,a0,-436 # 0x80020fe0
    8000519c:	ffffc097          	auipc	ra,0xffffc
    800051a0:	ff4080e7          	jalr	-12(ra) # 0x80001190
    800051a4:	00048513          	mv	a0,s1
    800051a8:	00000097          	auipc	ra,0x0
    800051ac:	e74080e7          	jalr	-396(ra) # 0x8000501c
    800051b0:	04049223          	sh	zero,68(s1)
    800051b4:	00048513          	mv	a0,s1
    800051b8:	00000097          	auipc	ra,0x0
    800051bc:	bd4080e7          	jalr	-1068(ra) # 0x80004d8c
    800051c0:	0404a023          	sw	zero,64(s1)
    800051c4:	00090513          	mv	a0,s2
    800051c8:	00001097          	auipc	ra,0x1
    800051cc:	140080e7          	jalr	320(ra) # 0x80006308
    800051d0:	0001c517          	auipc	a0,0x1c
    800051d4:	e1050513          	addi	a0,a0,-496 # 0x80020fe0
    800051d8:	ffffc097          	auipc	ra,0xffffc
    800051dc:	ec0080e7          	jalr	-320(ra) # 0x80001098
    800051e0:	f61ff06f          	j	0x80005140
    800051e4:	fe010113          	addi	sp,sp,-32
    800051e8:	00113c23          	sd	ra,24(sp)
    800051ec:	00813823          	sd	s0,16(sp)
    800051f0:	00913423          	sd	s1,8(sp)
    800051f4:	02010413          	addi	s0,sp,32
    800051f8:	00050493          	mv	s1,a0
    800051fc:	00000097          	auipc	ra,0x0
    80005200:	db0080e7          	jalr	-592(ra) # 0x80004fac
    80005204:	00048513          	mv	a0,s1
    80005208:	00000097          	auipc	ra,0x0
    8000520c:	f00080e7          	jalr	-256(ra) # 0x80005108
    80005210:	01813083          	ld	ra,24(sp)
    80005214:	01013403          	ld	s0,16(sp)
    80005218:	00813483          	ld	s1,8(sp)
    8000521c:	02010113          	addi	sp,sp,32
    80005220:	00008067          	ret
    80005224:	0001c717          	auipc	a4,0x1c
    80005228:	da872703          	lw	a4,-600(a4) # 0x80020fcc
    8000522c:	00100793          	li	a5,1
    80005230:	12e7fc63          	bgeu	a5,a4,0x80005368
    80005234:	fc010113          	addi	sp,sp,-64
    80005238:	02113c23          	sd	ra,56(sp)
    8000523c:	02813823          	sd	s0,48(sp)
    80005240:	02913423          	sd	s1,40(sp)
    80005244:	03213023          	sd	s2,32(sp)
    80005248:	01313c23          	sd	s3,24(sp)
    8000524c:	01413823          	sd	s4,16(sp)
    80005250:	01513423          	sd	s5,8(sp)
    80005254:	01613023          	sd	s6,0(sp)
    80005258:	04010413          	addi	s0,sp,64
    8000525c:	00100493          	li	s1,1
    80005260:	00050a1b          	sext.w	s4,a0
    80005264:	0001ca97          	auipc	s5,0x1c
    80005268:	d5ca8a93          	addi	s5,s5,-676 # 0x80020fc0
    8000526c:	00005b17          	auipc	s6,0x5
    80005270:	46cb0b13          	addi	s6,s6,1132 # 0x8000a6d8
    80005274:	07c0006f          	j	0x800052f0
    80005278:	00098593          	mv	a1,s3
    8000527c:	000b0513          	mv	a0,s6
    80005280:	ffffb097          	auipc	ra,0xffffb
    80005284:	428080e7          	jalr	1064(ra) # 0x800006a8
    80005288:	00098593          	mv	a1,s3
    8000528c:	000a0513          	mv	a0,s4
    80005290:	00000097          	auipc	ra,0x0
    80005294:	85c080e7          	jalr	-1956(ra) # 0x80004aec
    80005298:	00050993          	mv	s3,a0
    8000529c:	00090513          	mv	a0,s2
    800052a0:	fffff097          	auipc	ra,0xfffff
    800052a4:	358080e7          	jalr	856(ra) # 0x800045f8
    800052a8:	02098c63          	beqz	s3,0x800052e0
    800052ac:	00001097          	auipc	ra,0x1
    800052b0:	bfc080e7          	jalr	-1028(ra) # 0x80005ea8
    800052b4:	00098513          	mv	a0,s3
    800052b8:	00000097          	auipc	ra,0x0
    800052bc:	bf0080e7          	jalr	-1040(ra) # 0x80004ea8
    800052c0:	00098513          	mv	a0,s3
    800052c4:	00000097          	auipc	ra,0x0
    800052c8:	ce8080e7          	jalr	-792(ra) # 0x80004fac
    800052cc:	00098513          	mv	a0,s3
    800052d0:	00000097          	auipc	ra,0x0
    800052d4:	e38080e7          	jalr	-456(ra) # 0x80005108
    800052d8:	00001097          	auipc	ra,0x1
    800052dc:	c84080e7          	jalr	-892(ra) # 0x80005f5c
    800052e0:	00148493          	addi	s1,s1,1
    800052e4:	00caa703          	lw	a4,12(s5)
    800052e8:	0004879b          	sext.w	a5,s1
    800052ec:	04e7fa63          	bgeu	a5,a4,0x80005340
    800052f0:	0004899b          	sext.w	s3,s1
    800052f4:	0044d593          	srli	a1,s1,0x4
    800052f8:	018aa783          	lw	a5,24(s5)
    800052fc:	00b785bb          	addw	a1,a5,a1
    80005300:	000a0513          	mv	a0,s4
    80005304:	fffff097          	auipc	ra,0xfffff
    80005308:	158080e7          	jalr	344(ra) # 0x8000445c
    8000530c:	00050913          	mv	s2,a0
    80005310:	05850793          	addi	a5,a0,88
    80005314:	00f9f713          	andi	a4,s3,15
    80005318:	00671713          	slli	a4,a4,0x6
    8000531c:	00e787b3          	add	a5,a5,a4
    80005320:	00079703          	lh	a4,0(a5)
    80005324:	00070663          	beqz	a4,0x80005330
    80005328:	00679783          	lh	a5,6(a5)
    8000532c:	f40786e3          	beqz	a5,0x80005278
    80005330:	00090513          	mv	a0,s2
    80005334:	fffff097          	auipc	ra,0xfffff
    80005338:	2c4080e7          	jalr	708(ra) # 0x800045f8
    8000533c:	fa5ff06f          	j	0x800052e0
    80005340:	03813083          	ld	ra,56(sp)
    80005344:	03013403          	ld	s0,48(sp)
    80005348:	02813483          	ld	s1,40(sp)
    8000534c:	02013903          	ld	s2,32(sp)
    80005350:	01813983          	ld	s3,24(sp)
    80005354:	01013a03          	ld	s4,16(sp)
    80005358:	00813a83          	ld	s5,8(sp)
    8000535c:	00013b03          	ld	s6,0(sp)
    80005360:	04010113          	addi	sp,sp,64
    80005364:	00008067          	ret
    80005368:	00008067          	ret
    8000536c:	fd010113          	addi	sp,sp,-48
    80005370:	02113423          	sd	ra,40(sp)
    80005374:	02813023          	sd	s0,32(sp)
    80005378:	00913c23          	sd	s1,24(sp)
    8000537c:	01213823          	sd	s2,16(sp)
    80005380:	01313423          	sd	s3,8(sp)
    80005384:	03010413          	addi	s0,sp,48
    80005388:	00050493          	mv	s1,a0
    8000538c:	00100593          	li	a1,1
    80005390:	fffff097          	auipc	ra,0xfffff
    80005394:	0cc080e7          	jalr	204(ra) # 0x8000445c
    80005398:	00050913          	mv	s2,a0
    8000539c:	0001c997          	auipc	s3,0x1c
    800053a0:	c2498993          	addi	s3,s3,-988 # 0x80020fc0
    800053a4:	02000613          	li	a2,32
    800053a8:	05850593          	addi	a1,a0,88
    800053ac:	00098513          	mv	a0,s3
    800053b0:	ffffc097          	auipc	ra,0xffffc
    800053b4:	ed4080e7          	jalr	-300(ra) # 0x80001284
    800053b8:	00090513          	mv	a0,s2
    800053bc:	fffff097          	auipc	ra,0xfffff
    800053c0:	23c080e7          	jalr	572(ra) # 0x800045f8
    800053c4:	0009a703          	lw	a4,0(s3)
    800053c8:	102037b7          	lui	a5,0x10203
    800053cc:	04078793          	addi	a5,a5,64 # 0x10203040
    800053d0:	04f71063          	bne	a4,a5,0x80005410
    800053d4:	0001c597          	auipc	a1,0x1c
    800053d8:	bec58593          	addi	a1,a1,-1044 # 0x80020fc0
    800053dc:	00048513          	mv	a0,s1
    800053e0:	00001097          	auipc	ra,0x1
    800053e4:	9f0080e7          	jalr	-1552(ra) # 0x80005dd0
    800053e8:	00048513          	mv	a0,s1
    800053ec:	00000097          	auipc	ra,0x0
    800053f0:	e38080e7          	jalr	-456(ra) # 0x80005224
    800053f4:	02813083          	ld	ra,40(sp)
    800053f8:	02013403          	ld	s0,32(sp)
    800053fc:	01813483          	ld	s1,24(sp)
    80005400:	01013903          	ld	s2,16(sp)
    80005404:	00813983          	ld	s3,8(sp)
    80005408:	03010113          	addi	sp,sp,48
    8000540c:	00008067          	ret
    80005410:	00005517          	auipc	a0,0x5
    80005414:	2e850513          	addi	a0,a0,744 # 0x8000a6f8
    80005418:	ffffb097          	auipc	ra,0xffffb
    8000541c:	668080e7          	jalr	1640(ra) # 0x80000a80
    80005420:	ff010113          	addi	sp,sp,-16
    80005424:	00813423          	sd	s0,8(sp)
    80005428:	01010413          	addi	s0,sp,16
    8000542c:	00052783          	lw	a5,0(a0)
    80005430:	00f5a023          	sw	a5,0(a1)
    80005434:	00452783          	lw	a5,4(a0)
    80005438:	00f5a223          	sw	a5,4(a1)
    8000543c:	04451783          	lh	a5,68(a0)
    80005440:	00f59423          	sh	a5,8(a1)
    80005444:	04a51783          	lh	a5,74(a0)
    80005448:	00f59523          	sh	a5,10(a1)
    8000544c:	04c56783          	lwu	a5,76(a0)
    80005450:	00f5b823          	sd	a5,16(a1)
    80005454:	00813403          	ld	s0,8(sp)
    80005458:	01010113          	addi	sp,sp,16
    8000545c:	00008067          	ret
    80005460:	04c52783          	lw	a5,76(a0)
    80005464:	16d7e263          	bltu	a5,a3,0x800055c8
    80005468:	f9010113          	addi	sp,sp,-112
    8000546c:	06113423          	sd	ra,104(sp)
    80005470:	06813023          	sd	s0,96(sp)
    80005474:	04913c23          	sd	s1,88(sp)
    80005478:	05213823          	sd	s2,80(sp)
    8000547c:	05313423          	sd	s3,72(sp)
    80005480:	05413023          	sd	s4,64(sp)
    80005484:	03513c23          	sd	s5,56(sp)
    80005488:	03613823          	sd	s6,48(sp)
    8000548c:	03713423          	sd	s7,40(sp)
    80005490:	03813023          	sd	s8,32(sp)
    80005494:	01913c23          	sd	s9,24(sp)
    80005498:	01a13823          	sd	s10,16(sp)
    8000549c:	01b13423          	sd	s11,8(sp)
    800054a0:	07010413          	addi	s0,sp,112
    800054a4:	00050b13          	mv	s6,a0
    800054a8:	00058b93          	mv	s7,a1
    800054ac:	00060a13          	mv	s4,a2
    800054b0:	00068493          	mv	s1,a3
    800054b4:	00070a93          	mv	s5,a4
    800054b8:	00e6873b          	addw	a4,a3,a4
    800054bc:	00000513          	li	a0,0
    800054c0:	0cd76263          	bltu	a4,a3,0x80005584
    800054c4:	00e7f463          	bgeu	a5,a4,0x800054cc
    800054c8:	40d78abb          	subw	s5,a5,a3
    800054cc:	0e0a8a63          	beqz	s5,0x800055c0
    800054d0:	00000993          	li	s3,0
    800054d4:	40000c93          	li	s9,1024
    800054d8:	fff00c13          	li	s8,-1
    800054dc:	0480006f          	j	0x80005524
    800054e0:	020d1d93          	slli	s11,s10,0x20
    800054e4:	020ddd93          	srli	s11,s11,0x20
    800054e8:	05890613          	addi	a2,s2,88
    800054ec:	000d8693          	mv	a3,s11
    800054f0:	00e60633          	add	a2,a2,a4
    800054f4:	000a0593          	mv	a1,s4
    800054f8:	000b8513          	mv	a0,s7
    800054fc:	ffffe097          	auipc	ra,0xffffe
    80005500:	14c080e7          	jalr	332(ra) # 0x80003648
    80005504:	07850663          	beq	a0,s8,0x80005570
    80005508:	00090513          	mv	a0,s2
    8000550c:	fffff097          	auipc	ra,0xfffff
    80005510:	0ec080e7          	jalr	236(ra) # 0x800045f8
    80005514:	013d09bb          	addw	s3,s10,s3
    80005518:	009d04bb          	addw	s1,s10,s1
    8000551c:	01ba0a33          	add	s4,s4,s11
    80005520:	0759f063          	bgeu	s3,s5,0x80005580
    80005524:	00a4d59b          	srliw	a1,s1,0xa
    80005528:	000b0513          	mv	a0,s6
    8000552c:	fffff097          	auipc	ra,0xfffff
    80005530:	4a0080e7          	jalr	1184(ra) # 0x800049cc
    80005534:	0005059b          	sext.w	a1,a0
    80005538:	04058463          	beqz	a1,0x80005580
    8000553c:	000b2503          	lw	a0,0(s6)
    80005540:	fffff097          	auipc	ra,0xfffff
    80005544:	f1c080e7          	jalr	-228(ra) # 0x8000445c
    80005548:	00050913          	mv	s2,a0
    8000554c:	3ff4f713          	andi	a4,s1,1023
    80005550:	40ec87bb          	subw	a5,s9,a4
    80005554:	413a86bb          	subw	a3,s5,s3
    80005558:	00078d13          	mv	s10,a5
    8000555c:	0007879b          	sext.w	a5,a5
    80005560:	0006861b          	sext.w	a2,a3
    80005564:	f6f67ee3          	bgeu	a2,a5,0x800054e0
    80005568:	00068d13          	mv	s10,a3
    8000556c:	f75ff06f          	j	0x800054e0
    80005570:	00090513          	mv	a0,s2
    80005574:	fffff097          	auipc	ra,0xfffff
    80005578:	084080e7          	jalr	132(ra) # 0x800045f8
    8000557c:	fff00993          	li	s3,-1
    80005580:	0009851b          	sext.w	a0,s3
    80005584:	06813083          	ld	ra,104(sp)
    80005588:	06013403          	ld	s0,96(sp)
    8000558c:	05813483          	ld	s1,88(sp)
    80005590:	05013903          	ld	s2,80(sp)
    80005594:	04813983          	ld	s3,72(sp)
    80005598:	04013a03          	ld	s4,64(sp)
    8000559c:	03813a83          	ld	s5,56(sp)
    800055a0:	03013b03          	ld	s6,48(sp)
    800055a4:	02813b83          	ld	s7,40(sp)
    800055a8:	02013c03          	ld	s8,32(sp)
    800055ac:	01813c83          	ld	s9,24(sp)
    800055b0:	01013d03          	ld	s10,16(sp)
    800055b4:	00813d83          	ld	s11,8(sp)
    800055b8:	07010113          	addi	sp,sp,112
    800055bc:	00008067          	ret
    800055c0:	000a8993          	mv	s3,s5
    800055c4:	fbdff06f          	j	0x80005580
    800055c8:	00000513          	li	a0,0
    800055cc:	00008067          	ret
    800055d0:	04c52783          	lw	a5,76(a0)
    800055d4:	18d7e063          	bltu	a5,a3,0x80005754
    800055d8:	f9010113          	addi	sp,sp,-112
    800055dc:	06113423          	sd	ra,104(sp)
    800055e0:	06813023          	sd	s0,96(sp)
    800055e4:	04913c23          	sd	s1,88(sp)
    800055e8:	05213823          	sd	s2,80(sp)
    800055ec:	05313423          	sd	s3,72(sp)
    800055f0:	05413023          	sd	s4,64(sp)
    800055f4:	03513c23          	sd	s5,56(sp)
    800055f8:	03613823          	sd	s6,48(sp)
    800055fc:	03713423          	sd	s7,40(sp)
    80005600:	03813023          	sd	s8,32(sp)
    80005604:	01913c23          	sd	s9,24(sp)
    80005608:	01a13823          	sd	s10,16(sp)
    8000560c:	01b13423          	sd	s11,8(sp)
    80005610:	07010413          	addi	s0,sp,112
    80005614:	00050a93          	mv	s5,a0
    80005618:	00058b93          	mv	s7,a1
    8000561c:	00060a13          	mv	s4,a2
    80005620:	00068913          	mv	s2,a3
    80005624:	00070b13          	mv	s6,a4
    80005628:	00e687bb          	addw	a5,a3,a4
    8000562c:	12d7e863          	bltu	a5,a3,0x8000575c
    80005630:	00043737          	lui	a4,0x43
    80005634:	12f76863          	bltu	a4,a5,0x80005764
    80005638:	100b0a63          	beqz	s6,0x8000574c
    8000563c:	00000993          	li	s3,0
    80005640:	40000c93          	li	s9,1024
    80005644:	fff00c13          	li	s8,-1
    80005648:	0540006f          	j	0x8000569c
    8000564c:	020d1d93          	slli	s11,s10,0x20
    80005650:	020ddd93          	srli	s11,s11,0x20
    80005654:	05848513          	addi	a0,s1,88
    80005658:	000d8693          	mv	a3,s11
    8000565c:	000a0613          	mv	a2,s4
    80005660:	000b8593          	mv	a1,s7
    80005664:	00e50533          	add	a0,a0,a4
    80005668:	ffffe097          	auipc	ra,0xffffe
    8000566c:	070080e7          	jalr	112(ra) # 0x800036d8
    80005670:	07850c63          	beq	a0,s8,0x800056e8
    80005674:	00048513          	mv	a0,s1
    80005678:	00001097          	auipc	ra,0x1
    8000567c:	a94080e7          	jalr	-1388(ra) # 0x8000610c
    80005680:	00048513          	mv	a0,s1
    80005684:	fffff097          	auipc	ra,0xfffff
    80005688:	f74080e7          	jalr	-140(ra) # 0x800045f8
    8000568c:	013d09bb          	addw	s3,s10,s3
    80005690:	012d093b          	addw	s2,s10,s2
    80005694:	01ba0a33          	add	s4,s4,s11
    80005698:	0569fe63          	bgeu	s3,s6,0x800056f4
    8000569c:	00a9559b          	srliw	a1,s2,0xa
    800056a0:	000a8513          	mv	a0,s5
    800056a4:	fffff097          	auipc	ra,0xfffff
    800056a8:	328080e7          	jalr	808(ra) # 0x800049cc
    800056ac:	0005059b          	sext.w	a1,a0
    800056b0:	04058263          	beqz	a1,0x800056f4
    800056b4:	000aa503          	lw	a0,0(s5)
    800056b8:	fffff097          	auipc	ra,0xfffff
    800056bc:	da4080e7          	jalr	-604(ra) # 0x8000445c
    800056c0:	00050493          	mv	s1,a0
    800056c4:	3ff97713          	andi	a4,s2,1023
    800056c8:	40ec87bb          	subw	a5,s9,a4
    800056cc:	413b06bb          	subw	a3,s6,s3
    800056d0:	00078d13          	mv	s10,a5
    800056d4:	0007879b          	sext.w	a5,a5
    800056d8:	0006861b          	sext.w	a2,a3
    800056dc:	f6f678e3          	bgeu	a2,a5,0x8000564c
    800056e0:	00068d13          	mv	s10,a3
    800056e4:	f69ff06f          	j	0x8000564c
    800056e8:	00048513          	mv	a0,s1
    800056ec:	fffff097          	auipc	ra,0xfffff
    800056f0:	f0c080e7          	jalr	-244(ra) # 0x800045f8
    800056f4:	04caa783          	lw	a5,76(s5)
    800056f8:	0127f463          	bgeu	a5,s2,0x80005700
    800056fc:	052aa623          	sw	s2,76(s5)
    80005700:	000a8513          	mv	a0,s5
    80005704:	fffff097          	auipc	ra,0xfffff
    80005708:	688080e7          	jalr	1672(ra) # 0x80004d8c
    8000570c:	0009851b          	sext.w	a0,s3
    80005710:	06813083          	ld	ra,104(sp)
    80005714:	06013403          	ld	s0,96(sp)
    80005718:	05813483          	ld	s1,88(sp)
    8000571c:	05013903          	ld	s2,80(sp)
    80005720:	04813983          	ld	s3,72(sp)
    80005724:	04013a03          	ld	s4,64(sp)
    80005728:	03813a83          	ld	s5,56(sp)
    8000572c:	03013b03          	ld	s6,48(sp)
    80005730:	02813b83          	ld	s7,40(sp)
    80005734:	02013c03          	ld	s8,32(sp)
    80005738:	01813c83          	ld	s9,24(sp)
    8000573c:	01013d03          	ld	s10,16(sp)
    80005740:	00813d83          	ld	s11,8(sp)
    80005744:	07010113          	addi	sp,sp,112
    80005748:	00008067          	ret
    8000574c:	000b0993          	mv	s3,s6
    80005750:	fb1ff06f          	j	0x80005700
    80005754:	fff00513          	li	a0,-1
    80005758:	00008067          	ret
    8000575c:	fff00513          	li	a0,-1
    80005760:	fb1ff06f          	j	0x80005710
    80005764:	fff00513          	li	a0,-1
    80005768:	fa9ff06f          	j	0x80005710
    8000576c:	ff010113          	addi	sp,sp,-16
    80005770:	00113423          	sd	ra,8(sp)
    80005774:	00813023          	sd	s0,0(sp)
    80005778:	01010413          	addi	s0,sp,16
    8000577c:	00e00613          	li	a2,14
    80005780:	ffffc097          	auipc	ra,0xffffc
    80005784:	bb0080e7          	jalr	-1104(ra) # 0x80001330
    80005788:	00813083          	ld	ra,8(sp)
    8000578c:	00013403          	ld	s0,0(sp)
    80005790:	01010113          	addi	sp,sp,16
    80005794:	00008067          	ret
    80005798:	fc010113          	addi	sp,sp,-64
    8000579c:	02113c23          	sd	ra,56(sp)
    800057a0:	02813823          	sd	s0,48(sp)
    800057a4:	02913423          	sd	s1,40(sp)
    800057a8:	03213023          	sd	s2,32(sp)
    800057ac:	01313c23          	sd	s3,24(sp)
    800057b0:	01413823          	sd	s4,16(sp)
    800057b4:	04010413          	addi	s0,sp,64
    800057b8:	04451703          	lh	a4,68(a0)
    800057bc:	00100793          	li	a5,1
    800057c0:	02f71263          	bne	a4,a5,0x800057e4
    800057c4:	00050913          	mv	s2,a0
    800057c8:	00058993          	mv	s3,a1
    800057cc:	00060a13          	mv	s4,a2
    800057d0:	04c52783          	lw	a5,76(a0)
    800057d4:	00000493          	li	s1,0
    800057d8:	00000513          	li	a0,0
    800057dc:	02079a63          	bnez	a5,0x80005810
    800057e0:	0900006f          	j	0x80005870
    800057e4:	00005517          	auipc	a0,0x5
    800057e8:	f2c50513          	addi	a0,a0,-212 # 0x8000a710
    800057ec:	ffffb097          	auipc	ra,0xffffb
    800057f0:	294080e7          	jalr	660(ra) # 0x80000a80
    800057f4:	00005517          	auipc	a0,0x5
    800057f8:	f3450513          	addi	a0,a0,-204 # 0x8000a728
    800057fc:	ffffb097          	auipc	ra,0xffffb
    80005800:	284080e7          	jalr	644(ra) # 0x80000a80
    80005804:	0104849b          	addiw	s1,s1,16
    80005808:	04c92783          	lw	a5,76(s2)
    8000580c:	06f4f063          	bgeu	s1,a5,0x8000586c
    80005810:	01000713          	li	a4,16
    80005814:	00048693          	mv	a3,s1
    80005818:	fc040613          	addi	a2,s0,-64
    8000581c:	00000593          	li	a1,0
    80005820:	00090513          	mv	a0,s2
    80005824:	00000097          	auipc	ra,0x0
    80005828:	c3c080e7          	jalr	-964(ra) # 0x80005460
    8000582c:	01000793          	li	a5,16
    80005830:	fcf512e3          	bne	a0,a5,0x800057f4
    80005834:	fc045783          	lhu	a5,-64(s0)
    80005838:	fc0786e3          	beqz	a5,0x80005804
    8000583c:	fc240593          	addi	a1,s0,-62
    80005840:	00098513          	mv	a0,s3
    80005844:	00000097          	auipc	ra,0x0
    80005848:	f28080e7          	jalr	-216(ra) # 0x8000576c
    8000584c:	fa051ce3          	bnez	a0,0x80005804
    80005850:	000a0463          	beqz	s4,0x80005858
    80005854:	009a2023          	sw	s1,0(s4)
    80005858:	fc045583          	lhu	a1,-64(s0)
    8000585c:	00092503          	lw	a0,0(s2)
    80005860:	fffff097          	auipc	ra,0xfffff
    80005864:	28c080e7          	jalr	652(ra) # 0x80004aec
    80005868:	0080006f          	j	0x80005870
    8000586c:	00000513          	li	a0,0
    80005870:	03813083          	ld	ra,56(sp)
    80005874:	03013403          	ld	s0,48(sp)
    80005878:	02813483          	ld	s1,40(sp)
    8000587c:	02013903          	ld	s2,32(sp)
    80005880:	01813983          	ld	s3,24(sp)
    80005884:	01013a03          	ld	s4,16(sp)
    80005888:	04010113          	addi	sp,sp,64
    8000588c:	00008067          	ret
    80005890:	fa010113          	addi	sp,sp,-96
    80005894:	04113c23          	sd	ra,88(sp)
    80005898:	04813823          	sd	s0,80(sp)
    8000589c:	04913423          	sd	s1,72(sp)
    800058a0:	05213023          	sd	s2,64(sp)
    800058a4:	03313c23          	sd	s3,56(sp)
    800058a8:	03413823          	sd	s4,48(sp)
    800058ac:	03513423          	sd	s5,40(sp)
    800058b0:	03613023          	sd	s6,32(sp)
    800058b4:	01713c23          	sd	s7,24(sp)
    800058b8:	01813823          	sd	s8,16(sp)
    800058bc:	01913423          	sd	s9,8(sp)
    800058c0:	01a13023          	sd	s10,0(sp)
    800058c4:	06010413          	addi	s0,sp,96
    800058c8:	00050493          	mv	s1,a0
    800058cc:	00058b13          	mv	s6,a1
    800058d0:	00060a93          	mv	s5,a2
    800058d4:	00054703          	lbu	a4,0(a0)
    800058d8:	02f00793          	li	a5,47
    800058dc:	02f70863          	beq	a4,a5,0x8000590c
    800058e0:	ffffd097          	auipc	ra,0xffffd
    800058e4:	e18080e7          	jalr	-488(ra) # 0x800026f8
    800058e8:	15053503          	ld	a0,336(a0)
    800058ec:	fffff097          	auipc	ra,0xfffff
    800058f0:	560080e7          	jalr	1376(ra) # 0x80004e4c
    800058f4:	00050a13          	mv	s4,a0
    800058f8:	02f00913          	li	s2,47
    800058fc:	00d00c93          	li	s9,13
    80005900:	00000b93          	li	s7,0
    80005904:	00100c13          	li	s8,1
    80005908:	1100006f          	j	0x80005a18
    8000590c:	00100593          	li	a1,1
    80005910:	00100513          	li	a0,1
    80005914:	fffff097          	auipc	ra,0xfffff
    80005918:	1d8080e7          	jalr	472(ra) # 0x80004aec
    8000591c:	00050a13          	mv	s4,a0
    80005920:	fd9ff06f          	j	0x800058f8
    80005924:	000a0513          	mv	a0,s4
    80005928:	00000097          	auipc	ra,0x0
    8000592c:	8bc080e7          	jalr	-1860(ra) # 0x800051e4
    80005930:	00000a13          	li	s4,0
    80005934:	000a0513          	mv	a0,s4
    80005938:	05813083          	ld	ra,88(sp)
    8000593c:	05013403          	ld	s0,80(sp)
    80005940:	04813483          	ld	s1,72(sp)
    80005944:	04013903          	ld	s2,64(sp)
    80005948:	03813983          	ld	s3,56(sp)
    8000594c:	03013a03          	ld	s4,48(sp)
    80005950:	02813a83          	ld	s5,40(sp)
    80005954:	02013b03          	ld	s6,32(sp)
    80005958:	01813b83          	ld	s7,24(sp)
    8000595c:	01013c03          	ld	s8,16(sp)
    80005960:	00813c83          	ld	s9,8(sp)
    80005964:	00013d03          	ld	s10,0(sp)
    80005968:	06010113          	addi	sp,sp,96
    8000596c:	00008067          	ret
    80005970:	000a0513          	mv	a0,s4
    80005974:	fffff097          	auipc	ra,0xfffff
    80005978:	638080e7          	jalr	1592(ra) # 0x80004fac
    8000597c:	fb9ff06f          	j	0x80005934
    80005980:	000a0513          	mv	a0,s4
    80005984:	00000097          	auipc	ra,0x0
    80005988:	860080e7          	jalr	-1952(ra) # 0x800051e4
    8000598c:	00098a13          	mv	s4,s3
    80005990:	fa5ff06f          	j	0x80005934
    80005994:	40998633          	sub	a2,s3,s1
    80005998:	00060d1b          	sext.w	s10,a2
    8000599c:	0bacde63          	bge	s9,s10,0x80005a58
    800059a0:	00e00613          	li	a2,14
    800059a4:	00048593          	mv	a1,s1
    800059a8:	000a8513          	mv	a0,s5
    800059ac:	ffffc097          	auipc	ra,0xffffc
    800059b0:	8d8080e7          	jalr	-1832(ra) # 0x80001284
    800059b4:	00098493          	mv	s1,s3
    800059b8:	0004c783          	lbu	a5,0(s1)
    800059bc:	01279863          	bne	a5,s2,0x800059cc
    800059c0:	00148493          	addi	s1,s1,1
    800059c4:	0004c783          	lbu	a5,0(s1)
    800059c8:	ff278ce3          	beq	a5,s2,0x800059c0
    800059cc:	000a0513          	mv	a0,s4
    800059d0:	fffff097          	auipc	ra,0xfffff
    800059d4:	4d8080e7          	jalr	1240(ra) # 0x80004ea8
    800059d8:	044a1783          	lh	a5,68(s4)
    800059dc:	f58794e3          	bne	a5,s8,0x80005924
    800059e0:	000b0663          	beqz	s6,0x800059ec
    800059e4:	0004c783          	lbu	a5,0(s1)
    800059e8:	f80784e3          	beqz	a5,0x80005970
    800059ec:	000b8613          	mv	a2,s7
    800059f0:	000a8593          	mv	a1,s5
    800059f4:	000a0513          	mv	a0,s4
    800059f8:	00000097          	auipc	ra,0x0
    800059fc:	da0080e7          	jalr	-608(ra) # 0x80005798
    80005a00:	00050993          	mv	s3,a0
    80005a04:	f6050ee3          	beqz	a0,0x80005980
    80005a08:	000a0513          	mv	a0,s4
    80005a0c:	fffff097          	auipc	ra,0xfffff
    80005a10:	7d8080e7          	jalr	2008(ra) # 0x800051e4
    80005a14:	00098a13          	mv	s4,s3
    80005a18:	0004c783          	lbu	a5,0(s1)
    80005a1c:	01279863          	bne	a5,s2,0x80005a2c
    80005a20:	00148493          	addi	s1,s1,1
    80005a24:	0004c783          	lbu	a5,0(s1)
    80005a28:	ff278ce3          	beq	a5,s2,0x80005a20
    80005a2c:	04078863          	beqz	a5,0x80005a7c
    80005a30:	0004c783          	lbu	a5,0(s1)
    80005a34:	00048993          	mv	s3,s1
    80005a38:	000b8d13          	mv	s10,s7
    80005a3c:	000b8613          	mv	a2,s7
    80005a40:	01278c63          	beq	a5,s2,0x80005a58
    80005a44:	f40788e3          	beqz	a5,0x80005994
    80005a48:	00198993          	addi	s3,s3,1
    80005a4c:	0009c783          	lbu	a5,0(s3)
    80005a50:	ff279ae3          	bne	a5,s2,0x80005a44
    80005a54:	f41ff06f          	j	0x80005994
    80005a58:	0006061b          	sext.w	a2,a2
    80005a5c:	00048593          	mv	a1,s1
    80005a60:	000a8513          	mv	a0,s5
    80005a64:	ffffc097          	auipc	ra,0xffffc
    80005a68:	820080e7          	jalr	-2016(ra) # 0x80001284
    80005a6c:	01aa8d33          	add	s10,s5,s10
    80005a70:	000d0023          	sb	zero,0(s10) # 0x1000
    80005a74:	00098493          	mv	s1,s3
    80005a78:	f41ff06f          	j	0x800059b8
    80005a7c:	ea0b0ce3          	beqz	s6,0x80005934
    80005a80:	000a0513          	mv	a0,s4
    80005a84:	fffff097          	auipc	ra,0xfffff
    80005a88:	684080e7          	jalr	1668(ra) # 0x80005108
    80005a8c:	00000a13          	li	s4,0
    80005a90:	ea5ff06f          	j	0x80005934
    80005a94:	fc010113          	addi	sp,sp,-64
    80005a98:	02113c23          	sd	ra,56(sp)
    80005a9c:	02813823          	sd	s0,48(sp)
    80005aa0:	02913423          	sd	s1,40(sp)
    80005aa4:	03213023          	sd	s2,32(sp)
    80005aa8:	01313c23          	sd	s3,24(sp)
    80005aac:	01413823          	sd	s4,16(sp)
    80005ab0:	04010413          	addi	s0,sp,64
    80005ab4:	00050913          	mv	s2,a0
    80005ab8:	00058a13          	mv	s4,a1
    80005abc:	00060993          	mv	s3,a2
    80005ac0:	00000613          	li	a2,0
    80005ac4:	00000097          	auipc	ra,0x0
    80005ac8:	cd4080e7          	jalr	-812(ra) # 0x80005798
    80005acc:	0a051463          	bnez	a0,0x80005b74
    80005ad0:	04c92483          	lw	s1,76(s2)
    80005ad4:	04048063          	beqz	s1,0x80005b14
    80005ad8:	00000493          	li	s1,0
    80005adc:	01000713          	li	a4,16
    80005ae0:	00048693          	mv	a3,s1
    80005ae4:	fc040613          	addi	a2,s0,-64
    80005ae8:	00000593          	li	a1,0
    80005aec:	00090513          	mv	a0,s2
    80005af0:	00000097          	auipc	ra,0x0
    80005af4:	970080e7          	jalr	-1680(ra) # 0x80005460
    80005af8:	01000793          	li	a5,16
    80005afc:	08f51463          	bne	a0,a5,0x80005b84
    80005b00:	fc045783          	lhu	a5,-64(s0)
    80005b04:	00078863          	beqz	a5,0x80005b14
    80005b08:	0104849b          	addiw	s1,s1,16
    80005b0c:	04c92783          	lw	a5,76(s2)
    80005b10:	fcf4e6e3          	bltu	s1,a5,0x80005adc
    80005b14:	00e00613          	li	a2,14
    80005b18:	000a0593          	mv	a1,s4
    80005b1c:	fc240513          	addi	a0,s0,-62
    80005b20:	ffffc097          	auipc	ra,0xffffc
    80005b24:	874080e7          	jalr	-1932(ra) # 0x80001394
    80005b28:	fd341023          	sh	s3,-64(s0)
    80005b2c:	01000713          	li	a4,16
    80005b30:	00048693          	mv	a3,s1
    80005b34:	fc040613          	addi	a2,s0,-64
    80005b38:	00000593          	li	a1,0
    80005b3c:	00090513          	mv	a0,s2
    80005b40:	00000097          	auipc	ra,0x0
    80005b44:	a90080e7          	jalr	-1392(ra) # 0x800055d0
    80005b48:	ff050513          	addi	a0,a0,-16
    80005b4c:	00a03533          	snez	a0,a0
    80005b50:	40a00533          	neg	a0,a0
    80005b54:	03813083          	ld	ra,56(sp)
    80005b58:	03013403          	ld	s0,48(sp)
    80005b5c:	02813483          	ld	s1,40(sp)
    80005b60:	02013903          	ld	s2,32(sp)
    80005b64:	01813983          	ld	s3,24(sp)
    80005b68:	01013a03          	ld	s4,16(sp)
    80005b6c:	04010113          	addi	sp,sp,64
    80005b70:	00008067          	ret
    80005b74:	fffff097          	auipc	ra,0xfffff
    80005b78:	594080e7          	jalr	1428(ra) # 0x80005108
    80005b7c:	fff00513          	li	a0,-1
    80005b80:	fd5ff06f          	j	0x80005b54
    80005b84:	00005517          	auipc	a0,0x5
    80005b88:	bb450513          	addi	a0,a0,-1100 # 0x8000a738
    80005b8c:	ffffb097          	auipc	ra,0xffffb
    80005b90:	ef4080e7          	jalr	-268(ra) # 0x80000a80
    80005b94:	fe010113          	addi	sp,sp,-32
    80005b98:	00113c23          	sd	ra,24(sp)
    80005b9c:	00813823          	sd	s0,16(sp)
    80005ba0:	02010413          	addi	s0,sp,32
    80005ba4:	fe040613          	addi	a2,s0,-32
    80005ba8:	00000593          	li	a1,0
    80005bac:	00000097          	auipc	ra,0x0
    80005bb0:	ce4080e7          	jalr	-796(ra) # 0x80005890
    80005bb4:	01813083          	ld	ra,24(sp)
    80005bb8:	01013403          	ld	s0,16(sp)
    80005bbc:	02010113          	addi	sp,sp,32
    80005bc0:	00008067          	ret
    80005bc4:	ff010113          	addi	sp,sp,-16
    80005bc8:	00113423          	sd	ra,8(sp)
    80005bcc:	00813023          	sd	s0,0(sp)
    80005bd0:	01010413          	addi	s0,sp,16
    80005bd4:	00058613          	mv	a2,a1
    80005bd8:	00100593          	li	a1,1
    80005bdc:	00000097          	auipc	ra,0x0
    80005be0:	cb4080e7          	jalr	-844(ra) # 0x80005890
    80005be4:	00813083          	ld	ra,8(sp)
    80005be8:	00013403          	ld	s0,0(sp)
    80005bec:	01010113          	addi	sp,sp,16
    80005bf0:	00008067          	ret
    80005bf4:	fe010113          	addi	sp,sp,-32
    80005bf8:	00113c23          	sd	ra,24(sp)
    80005bfc:	00813823          	sd	s0,16(sp)
    80005c00:	00913423          	sd	s1,8(sp)
    80005c04:	01213023          	sd	s2,0(sp)
    80005c08:	02010413          	addi	s0,sp,32
    80005c0c:	0001d917          	auipc	s2,0x1d
    80005c10:	e7c90913          	addi	s2,s2,-388 # 0x80022a88
    80005c14:	01892583          	lw	a1,24(s2)
    80005c18:	02492503          	lw	a0,36(s2)
    80005c1c:	fffff097          	auipc	ra,0xfffff
    80005c20:	840080e7          	jalr	-1984(ra) # 0x8000445c
    80005c24:	00050493          	mv	s1,a0
    80005c28:	02892683          	lw	a3,40(s2)
    80005c2c:	04d52c23          	sw	a3,88(a0)
    80005c30:	02d05e63          	blez	a3,0x80005c6c
    80005c34:	0001d797          	auipc	a5,0x1d
    80005c38:	e8078793          	addi	a5,a5,-384 # 0x80022ab4
    80005c3c:	05c50713          	addi	a4,a0,92
    80005c40:	fff6869b          	addiw	a3,a3,-1
    80005c44:	02069613          	slli	a2,a3,0x20
    80005c48:	01e65693          	srli	a3,a2,0x1e
    80005c4c:	0001d617          	auipc	a2,0x1d
    80005c50:	e6c60613          	addi	a2,a2,-404 # 0x80022ab8
    80005c54:	00c686b3          	add	a3,a3,a2
    80005c58:	0007a603          	lw	a2,0(a5)
    80005c5c:	00c72023          	sw	a2,0(a4) # 0x43000
    80005c60:	00478793          	addi	a5,a5,4
    80005c64:	00470713          	addi	a4,a4,4
    80005c68:	fed798e3          	bne	a5,a3,0x80005c58
    80005c6c:	00048513          	mv	a0,s1
    80005c70:	fffff097          	auipc	ra,0xfffff
    80005c74:	92c080e7          	jalr	-1748(ra) # 0x8000459c
    80005c78:	00048513          	mv	a0,s1
    80005c7c:	fffff097          	auipc	ra,0xfffff
    80005c80:	97c080e7          	jalr	-1668(ra) # 0x800045f8
    80005c84:	01813083          	ld	ra,24(sp)
    80005c88:	01013403          	ld	s0,16(sp)
    80005c8c:	00813483          	ld	s1,8(sp)
    80005c90:	00013903          	ld	s2,0(sp)
    80005c94:	02010113          	addi	sp,sp,32
    80005c98:	00008067          	ret
    80005c9c:	0001d797          	auipc	a5,0x1d
    80005ca0:	e147a783          	lw	a5,-492(a5) # 0x80022ab0
    80005ca4:	12f05463          	blez	a5,0x80005dcc
    80005ca8:	fb010113          	addi	sp,sp,-80
    80005cac:	04113423          	sd	ra,72(sp)
    80005cb0:	04813023          	sd	s0,64(sp)
    80005cb4:	02913c23          	sd	s1,56(sp)
    80005cb8:	03213823          	sd	s2,48(sp)
    80005cbc:	03313423          	sd	s3,40(sp)
    80005cc0:	03413023          	sd	s4,32(sp)
    80005cc4:	01513c23          	sd	s5,24(sp)
    80005cc8:	01613823          	sd	s6,16(sp)
    80005ccc:	01713423          	sd	s7,8(sp)
    80005cd0:	05010413          	addi	s0,sp,80
    80005cd4:	00050b13          	mv	s6,a0
    80005cd8:	0001da97          	auipc	s5,0x1d
    80005cdc:	ddca8a93          	addi	s5,s5,-548 # 0x80022ab4
    80005ce0:	00000993          	li	s3,0
    80005ce4:	00005b97          	auipc	s7,0x5
    80005ce8:	a64b8b93          	addi	s7,s7,-1436 # 0x8000a748
    80005cec:	0001da17          	auipc	s4,0x1d
    80005cf0:	d9ca0a13          	addi	s4,s4,-612 # 0x80022a88
    80005cf4:	0440006f          	j	0x80005d38
    80005cf8:	000aa603          	lw	a2,0(s5)
    80005cfc:	00098593          	mv	a1,s3
    80005d00:	000b8513          	mv	a0,s7
    80005d04:	ffffb097          	auipc	ra,0xffffb
    80005d08:	9a4080e7          	jalr	-1628(ra) # 0x800006a8
    80005d0c:	0300006f          	j	0x80005d3c
    80005d10:	00090513          	mv	a0,s2
    80005d14:	fffff097          	auipc	ra,0xfffff
    80005d18:	8e4080e7          	jalr	-1820(ra) # 0x800045f8
    80005d1c:	00048513          	mv	a0,s1
    80005d20:	fffff097          	auipc	ra,0xfffff
    80005d24:	8d8080e7          	jalr	-1832(ra) # 0x800045f8
    80005d28:	0019899b          	addiw	s3,s3,1
    80005d2c:	004a8a93          	addi	s5,s5,4
    80005d30:	028a2783          	lw	a5,40(s4)
    80005d34:	06f9d663          	bge	s3,a5,0x80005da0
    80005d38:	fc0b10e3          	bnez	s6,0x80005cf8
    80005d3c:	018a2583          	lw	a1,24(s4)
    80005d40:	013585bb          	addw	a1,a1,s3
    80005d44:	0015859b          	addiw	a1,a1,1
    80005d48:	024a2503          	lw	a0,36(s4)
    80005d4c:	ffffe097          	auipc	ra,0xffffe
    80005d50:	710080e7          	jalr	1808(ra) # 0x8000445c
    80005d54:	00050913          	mv	s2,a0
    80005d58:	000aa583          	lw	a1,0(s5)
    80005d5c:	024a2503          	lw	a0,36(s4)
    80005d60:	ffffe097          	auipc	ra,0xffffe
    80005d64:	6fc080e7          	jalr	1788(ra) # 0x8000445c
    80005d68:	00050493          	mv	s1,a0
    80005d6c:	40000613          	li	a2,1024
    80005d70:	05890593          	addi	a1,s2,88
    80005d74:	05850513          	addi	a0,a0,88
    80005d78:	ffffb097          	auipc	ra,0xffffb
    80005d7c:	50c080e7          	jalr	1292(ra) # 0x80001284
    80005d80:	00048513          	mv	a0,s1
    80005d84:	fffff097          	auipc	ra,0xfffff
    80005d88:	818080e7          	jalr	-2024(ra) # 0x8000459c
    80005d8c:	f80b12e3          	bnez	s6,0x80005d10
    80005d90:	00048513          	mv	a0,s1
    80005d94:	fffff097          	auipc	ra,0xfffff
    80005d98:	994080e7          	jalr	-1644(ra) # 0x80004728
    80005d9c:	f75ff06f          	j	0x80005d10
    80005da0:	04813083          	ld	ra,72(sp)
    80005da4:	04013403          	ld	s0,64(sp)
    80005da8:	03813483          	ld	s1,56(sp)
    80005dac:	03013903          	ld	s2,48(sp)
    80005db0:	02813983          	ld	s3,40(sp)
    80005db4:	02013a03          	ld	s4,32(sp)
    80005db8:	01813a83          	ld	s5,24(sp)
    80005dbc:	01013b03          	ld	s6,16(sp)
    80005dc0:	00813b83          	ld	s7,8(sp)
    80005dc4:	05010113          	addi	sp,sp,80
    80005dc8:	00008067          	ret
    80005dcc:	00008067          	ret
    80005dd0:	fd010113          	addi	sp,sp,-48
    80005dd4:	02113423          	sd	ra,40(sp)
    80005dd8:	02813023          	sd	s0,32(sp)
    80005ddc:	00913c23          	sd	s1,24(sp)
    80005de0:	01213823          	sd	s2,16(sp)
    80005de4:	01313423          	sd	s3,8(sp)
    80005de8:	03010413          	addi	s0,sp,48
    80005dec:	00050913          	mv	s2,a0
    80005df0:	00058993          	mv	s3,a1
    80005df4:	0001d497          	auipc	s1,0x1d
    80005df8:	c9448493          	addi	s1,s1,-876 # 0x80022a88
    80005dfc:	00005597          	auipc	a1,0x5
    80005e00:	96c58593          	addi	a1,a1,-1684 # 0x8000a768
    80005e04:	00048513          	mv	a0,s1
    80005e08:	ffffb097          	auipc	ra,0xffffb
    80005e0c:	1ac080e7          	jalr	428(ra) # 0x80000fb4
    80005e10:	0149a583          	lw	a1,20(s3)
    80005e14:	00b4ac23          	sw	a1,24(s1)
    80005e18:	0324a223          	sw	s2,36(s1)
    80005e1c:	00090513          	mv	a0,s2
    80005e20:	ffffe097          	auipc	ra,0xffffe
    80005e24:	63c080e7          	jalr	1596(ra) # 0x8000445c
    80005e28:	05852683          	lw	a3,88(a0)
    80005e2c:	02d4a423          	sw	a3,40(s1)
    80005e30:	02d05c63          	blez	a3,0x80005e68
    80005e34:	05c50793          	addi	a5,a0,92
    80005e38:	0001d717          	auipc	a4,0x1d
    80005e3c:	c7c70713          	addi	a4,a4,-900 # 0x80022ab4
    80005e40:	fff6869b          	addiw	a3,a3,-1
    80005e44:	02069613          	slli	a2,a3,0x20
    80005e48:	01e65693          	srli	a3,a2,0x1e
    80005e4c:	06050613          	addi	a2,a0,96
    80005e50:	00c686b3          	add	a3,a3,a2
    80005e54:	0007a603          	lw	a2,0(a5)
    80005e58:	00c72023          	sw	a2,0(a4)
    80005e5c:	00478793          	addi	a5,a5,4
    80005e60:	00470713          	addi	a4,a4,4
    80005e64:	fed798e3          	bne	a5,a3,0x80005e54
    80005e68:	ffffe097          	auipc	ra,0xffffe
    80005e6c:	790080e7          	jalr	1936(ra) # 0x800045f8
    80005e70:	00100513          	li	a0,1
    80005e74:	00000097          	auipc	ra,0x0
    80005e78:	e28080e7          	jalr	-472(ra) # 0x80005c9c
    80005e7c:	0001d797          	auipc	a5,0x1d
    80005e80:	c207aa23          	sw	zero,-972(a5) # 0x80022ab0
    80005e84:	00000097          	auipc	ra,0x0
    80005e88:	d70080e7          	jalr	-656(ra) # 0x80005bf4
    80005e8c:	02813083          	ld	ra,40(sp)
    80005e90:	02013403          	ld	s0,32(sp)
    80005e94:	01813483          	ld	s1,24(sp)
    80005e98:	01013903          	ld	s2,16(sp)
    80005e9c:	00813983          	ld	s3,8(sp)
    80005ea0:	03010113          	addi	sp,sp,48
    80005ea4:	00008067          	ret
    80005ea8:	fe010113          	addi	sp,sp,-32
    80005eac:	00113c23          	sd	ra,24(sp)
    80005eb0:	00813823          	sd	s0,16(sp)
    80005eb4:	00913423          	sd	s1,8(sp)
    80005eb8:	01213023          	sd	s2,0(sp)
    80005ebc:	02010413          	addi	s0,sp,32
    80005ec0:	0001d517          	auipc	a0,0x1d
    80005ec4:	bc850513          	addi	a0,a0,-1080 # 0x80022a88
    80005ec8:	ffffb097          	auipc	ra,0xffffb
    80005ecc:	1d0080e7          	jalr	464(ra) # 0x80001098
    80005ed0:	0001d497          	auipc	s1,0x1d
    80005ed4:	bb848493          	addi	s1,s1,-1096 # 0x80022a88
    80005ed8:	01e00913          	li	s2,30
    80005edc:	0140006f          	j	0x80005ef0
    80005ee0:	00048593          	mv	a1,s1
    80005ee4:	00048513          	mv	a0,s1
    80005ee8:	ffffd097          	auipc	ra,0xffffd
    80005eec:	1c8080e7          	jalr	456(ra) # 0x800030b0
    80005ef0:	0204a783          	lw	a5,32(s1)
    80005ef4:	fe0796e3          	bnez	a5,0x80005ee0
    80005ef8:	01c4a703          	lw	a4,28(s1)
    80005efc:	0017071b          	addiw	a4,a4,1
    80005f00:	0007069b          	sext.w	a3,a4
    80005f04:	0027179b          	slliw	a5,a4,0x2
    80005f08:	00e787bb          	addw	a5,a5,a4
    80005f0c:	0017979b          	slliw	a5,a5,0x1
    80005f10:	0284a703          	lw	a4,40(s1)
    80005f14:	00e787bb          	addw	a5,a5,a4
    80005f18:	00f95c63          	bge	s2,a5,0x80005f30
    80005f1c:	00048593          	mv	a1,s1
    80005f20:	00048513          	mv	a0,s1
    80005f24:	ffffd097          	auipc	ra,0xffffd
    80005f28:	18c080e7          	jalr	396(ra) # 0x800030b0
    80005f2c:	fc5ff06f          	j	0x80005ef0
    80005f30:	0001d517          	auipc	a0,0x1d
    80005f34:	b5850513          	addi	a0,a0,-1192 # 0x80022a88
    80005f38:	00d52e23          	sw	a3,28(a0)
    80005f3c:	ffffb097          	auipc	ra,0xffffb
    80005f40:	254080e7          	jalr	596(ra) # 0x80001190
    80005f44:	01813083          	ld	ra,24(sp)
    80005f48:	01013403          	ld	s0,16(sp)
    80005f4c:	00813483          	ld	s1,8(sp)
    80005f50:	00013903          	ld	s2,0(sp)
    80005f54:	02010113          	addi	sp,sp,32
    80005f58:	00008067          	ret
    80005f5c:	fc010113          	addi	sp,sp,-64
    80005f60:	02113c23          	sd	ra,56(sp)
    80005f64:	02813823          	sd	s0,48(sp)
    80005f68:	02913423          	sd	s1,40(sp)
    80005f6c:	03213023          	sd	s2,32(sp)
    80005f70:	01313c23          	sd	s3,24(sp)
    80005f74:	01413823          	sd	s4,16(sp)
    80005f78:	01513423          	sd	s5,8(sp)
    80005f7c:	04010413          	addi	s0,sp,64
    80005f80:	0001d497          	auipc	s1,0x1d
    80005f84:	b0848493          	addi	s1,s1,-1272 # 0x80022a88
    80005f88:	00048513          	mv	a0,s1
    80005f8c:	ffffb097          	auipc	ra,0xffffb
    80005f90:	10c080e7          	jalr	268(ra) # 0x80001098
    80005f94:	01c4a783          	lw	a5,28(s1)
    80005f98:	fff7879b          	addiw	a5,a5,-1
    80005f9c:	0007891b          	sext.w	s2,a5
    80005fa0:	00f4ae23          	sw	a5,28(s1)
    80005fa4:	0204a783          	lw	a5,32(s1)
    80005fa8:	06079063          	bnez	a5,0x80006008
    80005fac:	06091663          	bnez	s2,0x80006018
    80005fb0:	0001d497          	auipc	s1,0x1d
    80005fb4:	ad848493          	addi	s1,s1,-1320 # 0x80022a88
    80005fb8:	00100793          	li	a5,1
    80005fbc:	02f4a023          	sw	a5,32(s1)
    80005fc0:	00048513          	mv	a0,s1
    80005fc4:	ffffb097          	auipc	ra,0xffffb
    80005fc8:	1cc080e7          	jalr	460(ra) # 0x80001190
    80005fcc:	0284a783          	lw	a5,40(s1)
    80005fd0:	08f04663          	bgtz	a5,0x8000605c
    80005fd4:	0001d497          	auipc	s1,0x1d
    80005fd8:	ab448493          	addi	s1,s1,-1356 # 0x80022a88
    80005fdc:	00048513          	mv	a0,s1
    80005fe0:	ffffb097          	auipc	ra,0xffffb
    80005fe4:	0b8080e7          	jalr	184(ra) # 0x80001098
    80005fe8:	0204a023          	sw	zero,32(s1)
    80005fec:	00048513          	mv	a0,s1
    80005ff0:	ffffd097          	auipc	ra,0xffffd
    80005ff4:	150080e7          	jalr	336(ra) # 0x80003140
    80005ff8:	00048513          	mv	a0,s1
    80005ffc:	ffffb097          	auipc	ra,0xffffb
    80006000:	194080e7          	jalr	404(ra) # 0x80001190
    80006004:	0340006f          	j	0x80006038
    80006008:	00004517          	auipc	a0,0x4
    8000600c:	76850513          	addi	a0,a0,1896 # 0x8000a770
    80006010:	ffffb097          	auipc	ra,0xffffb
    80006014:	a70080e7          	jalr	-1424(ra) # 0x80000a80
    80006018:	0001d497          	auipc	s1,0x1d
    8000601c:	a7048493          	addi	s1,s1,-1424 # 0x80022a88
    80006020:	00048513          	mv	a0,s1
    80006024:	ffffd097          	auipc	ra,0xffffd
    80006028:	11c080e7          	jalr	284(ra) # 0x80003140
    8000602c:	00048513          	mv	a0,s1
    80006030:	ffffb097          	auipc	ra,0xffffb
    80006034:	160080e7          	jalr	352(ra) # 0x80001190
    80006038:	03813083          	ld	ra,56(sp)
    8000603c:	03013403          	ld	s0,48(sp)
    80006040:	02813483          	ld	s1,40(sp)
    80006044:	02013903          	ld	s2,32(sp)
    80006048:	01813983          	ld	s3,24(sp)
    8000604c:	01013a03          	ld	s4,16(sp)
    80006050:	00813a83          	ld	s5,8(sp)
    80006054:	04010113          	addi	sp,sp,64
    80006058:	00008067          	ret
    8000605c:	0001da97          	auipc	s5,0x1d
    80006060:	a58a8a93          	addi	s5,s5,-1448 # 0x80022ab4
    80006064:	0001da17          	auipc	s4,0x1d
    80006068:	a24a0a13          	addi	s4,s4,-1500 # 0x80022a88
    8000606c:	018a2583          	lw	a1,24(s4)
    80006070:	012585bb          	addw	a1,a1,s2
    80006074:	0015859b          	addiw	a1,a1,1
    80006078:	024a2503          	lw	a0,36(s4)
    8000607c:	ffffe097          	auipc	ra,0xffffe
    80006080:	3e0080e7          	jalr	992(ra) # 0x8000445c
    80006084:	00050493          	mv	s1,a0
    80006088:	000aa583          	lw	a1,0(s5)
    8000608c:	024a2503          	lw	a0,36(s4)
    80006090:	ffffe097          	auipc	ra,0xffffe
    80006094:	3cc080e7          	jalr	972(ra) # 0x8000445c
    80006098:	00050993          	mv	s3,a0
    8000609c:	40000613          	li	a2,1024
    800060a0:	05850593          	addi	a1,a0,88
    800060a4:	05848513          	addi	a0,s1,88
    800060a8:	ffffb097          	auipc	ra,0xffffb
    800060ac:	1dc080e7          	jalr	476(ra) # 0x80001284
    800060b0:	00048513          	mv	a0,s1
    800060b4:	ffffe097          	auipc	ra,0xffffe
    800060b8:	4e8080e7          	jalr	1256(ra) # 0x8000459c
    800060bc:	00098513          	mv	a0,s3
    800060c0:	ffffe097          	auipc	ra,0xffffe
    800060c4:	538080e7          	jalr	1336(ra) # 0x800045f8
    800060c8:	00048513          	mv	a0,s1
    800060cc:	ffffe097          	auipc	ra,0xffffe
    800060d0:	52c080e7          	jalr	1324(ra) # 0x800045f8
    800060d4:	0019091b          	addiw	s2,s2,1
    800060d8:	004a8a93          	addi	s5,s5,4
    800060dc:	028a2783          	lw	a5,40(s4)
    800060e0:	f8f946e3          	blt	s2,a5,0x8000606c
    800060e4:	00000097          	auipc	ra,0x0
    800060e8:	b10080e7          	jalr	-1264(ra) # 0x80005bf4
    800060ec:	00000513          	li	a0,0
    800060f0:	00000097          	auipc	ra,0x0
    800060f4:	bac080e7          	jalr	-1108(ra) # 0x80005c9c
    800060f8:	0001d797          	auipc	a5,0x1d
    800060fc:	9a07ac23          	sw	zero,-1608(a5) # 0x80022ab0
    80006100:	00000097          	auipc	ra,0x0
    80006104:	af4080e7          	jalr	-1292(ra) # 0x80005bf4
    80006108:	ecdff06f          	j	0x80005fd4
    8000610c:	fe010113          	addi	sp,sp,-32
    80006110:	00113c23          	sd	ra,24(sp)
    80006114:	00813823          	sd	s0,16(sp)
    80006118:	00913423          	sd	s1,8(sp)
    8000611c:	01213023          	sd	s2,0(sp)
    80006120:	02010413          	addi	s0,sp,32
    80006124:	00050493          	mv	s1,a0
    80006128:	0001d917          	auipc	s2,0x1d
    8000612c:	96090913          	addi	s2,s2,-1696 # 0x80022a88
    80006130:	00090513          	mv	a0,s2
    80006134:	ffffb097          	auipc	ra,0xffffb
    80006138:	f64080e7          	jalr	-156(ra) # 0x80001098
    8000613c:	02892603          	lw	a2,40(s2)
    80006140:	01d00793          	li	a5,29
    80006144:	06c7ce63          	blt	a5,a2,0x800061c0
    80006148:	0001d797          	auipc	a5,0x1d
    8000614c:	95c7a783          	lw	a5,-1700(a5) # 0x80022aa4
    80006150:	08f05063          	blez	a5,0x800061d0
    80006154:	00000793          	li	a5,0
    80006158:	08c05463          	blez	a2,0x800061e0
    8000615c:	00c4a583          	lw	a1,12(s1)
    80006160:	0001d717          	auipc	a4,0x1d
    80006164:	95470713          	addi	a4,a4,-1708 # 0x80022ab4
    80006168:	00000793          	li	a5,0
    8000616c:	00072683          	lw	a3,0(a4)
    80006170:	06b68863          	beq	a3,a1,0x800061e0
    80006174:	0017879b          	addiw	a5,a5,1
    80006178:	00470713          	addi	a4,a4,4
    8000617c:	fef618e3          	bne	a2,a5,0x8000616c
    80006180:	00860613          	addi	a2,a2,8
    80006184:	00261613          	slli	a2,a2,0x2
    80006188:	0001d797          	auipc	a5,0x1d
    8000618c:	90078793          	addi	a5,a5,-1792 # 0x80022a88
    80006190:	00c787b3          	add	a5,a5,a2
    80006194:	00c4a703          	lw	a4,12(s1)
    80006198:	00e7a623          	sw	a4,12(a5)
    8000619c:	00048513          	mv	a0,s1
    800061a0:	ffffe097          	auipc	ra,0xffffe
    800061a4:	530080e7          	jalr	1328(ra) # 0x800046d0
    800061a8:	0001d717          	auipc	a4,0x1d
    800061ac:	8e070713          	addi	a4,a4,-1824 # 0x80022a88
    800061b0:	02872783          	lw	a5,40(a4)
    800061b4:	0017879b          	addiw	a5,a5,1
    800061b8:	02f72423          	sw	a5,40(a4)
    800061bc:	0440006f          	j	0x80006200
    800061c0:	00004517          	auipc	a0,0x4
    800061c4:	5c050513          	addi	a0,a0,1472 # 0x8000a780
    800061c8:	ffffb097          	auipc	ra,0xffffb
    800061cc:	8b8080e7          	jalr	-1864(ra) # 0x80000a80
    800061d0:	00004517          	auipc	a0,0x4
    800061d4:	5c850513          	addi	a0,a0,1480 # 0x8000a798
    800061d8:	ffffb097          	auipc	ra,0xffffb
    800061dc:	8a8080e7          	jalr	-1880(ra) # 0x80000a80
    800061e0:	00878693          	addi	a3,a5,8
    800061e4:	00269693          	slli	a3,a3,0x2
    800061e8:	0001d717          	auipc	a4,0x1d
    800061ec:	8a070713          	addi	a4,a4,-1888 # 0x80022a88
    800061f0:	00d70733          	add	a4,a4,a3
    800061f4:	00c4a683          	lw	a3,12(s1)
    800061f8:	00d72623          	sw	a3,12(a4)
    800061fc:	faf600e3          	beq	a2,a5,0x8000619c
    80006200:	0001d517          	auipc	a0,0x1d
    80006204:	88850513          	addi	a0,a0,-1912 # 0x80022a88
    80006208:	ffffb097          	auipc	ra,0xffffb
    8000620c:	f88080e7          	jalr	-120(ra) # 0x80001190
    80006210:	01813083          	ld	ra,24(sp)
    80006214:	01013403          	ld	s0,16(sp)
    80006218:	00813483          	ld	s1,8(sp)
    8000621c:	00013903          	ld	s2,0(sp)
    80006220:	02010113          	addi	sp,sp,32
    80006224:	00008067          	ret
    80006228:	fe010113          	addi	sp,sp,-32
    8000622c:	00113c23          	sd	ra,24(sp)
    80006230:	00813823          	sd	s0,16(sp)
    80006234:	00913423          	sd	s1,8(sp)
    80006238:	01213023          	sd	s2,0(sp)
    8000623c:	02010413          	addi	s0,sp,32
    80006240:	00050493          	mv	s1,a0
    80006244:	00058913          	mv	s2,a1
    80006248:	00004597          	auipc	a1,0x4
    8000624c:	57058593          	addi	a1,a1,1392 # 0x8000a7b8
    80006250:	00850513          	addi	a0,a0,8
    80006254:	ffffb097          	auipc	ra,0xffffb
    80006258:	d60080e7          	jalr	-672(ra) # 0x80000fb4
    8000625c:	0324b023          	sd	s2,32(s1)
    80006260:	0004a023          	sw	zero,0(s1)
    80006264:	0204a423          	sw	zero,40(s1)
    80006268:	01813083          	ld	ra,24(sp)
    8000626c:	01013403          	ld	s0,16(sp)
    80006270:	00813483          	ld	s1,8(sp)
    80006274:	00013903          	ld	s2,0(sp)
    80006278:	02010113          	addi	sp,sp,32
    8000627c:	00008067          	ret
    80006280:	fe010113          	addi	sp,sp,-32
    80006284:	00113c23          	sd	ra,24(sp)
    80006288:	00813823          	sd	s0,16(sp)
    8000628c:	00913423          	sd	s1,8(sp)
    80006290:	01213023          	sd	s2,0(sp)
    80006294:	02010413          	addi	s0,sp,32
    80006298:	00050493          	mv	s1,a0
    8000629c:	00850913          	addi	s2,a0,8
    800062a0:	00090513          	mv	a0,s2
    800062a4:	ffffb097          	auipc	ra,0xffffb
    800062a8:	df4080e7          	jalr	-524(ra) # 0x80001098
    800062ac:	0004a783          	lw	a5,0(s1)
    800062b0:	00078e63          	beqz	a5,0x800062cc
    800062b4:	00090593          	mv	a1,s2
    800062b8:	00048513          	mv	a0,s1
    800062bc:	ffffd097          	auipc	ra,0xffffd
    800062c0:	df4080e7          	jalr	-524(ra) # 0x800030b0
    800062c4:	0004a783          	lw	a5,0(s1)
    800062c8:	fe0796e3          	bnez	a5,0x800062b4
    800062cc:	00100793          	li	a5,1
    800062d0:	00f4a023          	sw	a5,0(s1)
    800062d4:	ffffc097          	auipc	ra,0xffffc
    800062d8:	424080e7          	jalr	1060(ra) # 0x800026f8
    800062dc:	03052783          	lw	a5,48(a0)
    800062e0:	02f4a423          	sw	a5,40(s1)
    800062e4:	00090513          	mv	a0,s2
    800062e8:	ffffb097          	auipc	ra,0xffffb
    800062ec:	ea8080e7          	jalr	-344(ra) # 0x80001190
    800062f0:	01813083          	ld	ra,24(sp)
    800062f4:	01013403          	ld	s0,16(sp)
    800062f8:	00813483          	ld	s1,8(sp)
    800062fc:	00013903          	ld	s2,0(sp)
    80006300:	02010113          	addi	sp,sp,32
    80006304:	00008067          	ret
    80006308:	fe010113          	addi	sp,sp,-32
    8000630c:	00113c23          	sd	ra,24(sp)
    80006310:	00813823          	sd	s0,16(sp)
    80006314:	00913423          	sd	s1,8(sp)
    80006318:	01213023          	sd	s2,0(sp)
    8000631c:	02010413          	addi	s0,sp,32
    80006320:	00050493          	mv	s1,a0
    80006324:	00850913          	addi	s2,a0,8
    80006328:	00090513          	mv	a0,s2
    8000632c:	ffffb097          	auipc	ra,0xffffb
    80006330:	d6c080e7          	jalr	-660(ra) # 0x80001098
    80006334:	0004a023          	sw	zero,0(s1)
    80006338:	0204a423          	sw	zero,40(s1)
    8000633c:	00048513          	mv	a0,s1
    80006340:	ffffd097          	auipc	ra,0xffffd
    80006344:	e00080e7          	jalr	-512(ra) # 0x80003140
    80006348:	00090513          	mv	a0,s2
    8000634c:	ffffb097          	auipc	ra,0xffffb
    80006350:	e44080e7          	jalr	-444(ra) # 0x80001190
    80006354:	01813083          	ld	ra,24(sp)
    80006358:	01013403          	ld	s0,16(sp)
    8000635c:	00813483          	ld	s1,8(sp)
    80006360:	00013903          	ld	s2,0(sp)
    80006364:	02010113          	addi	sp,sp,32
    80006368:	00008067          	ret
    8000636c:	fd010113          	addi	sp,sp,-48
    80006370:	02113423          	sd	ra,40(sp)
    80006374:	02813023          	sd	s0,32(sp)
    80006378:	00913c23          	sd	s1,24(sp)
    8000637c:	01213823          	sd	s2,16(sp)
    80006380:	01313423          	sd	s3,8(sp)
    80006384:	03010413          	addi	s0,sp,48
    80006388:	00050493          	mv	s1,a0
    8000638c:	00850913          	addi	s2,a0,8
    80006390:	00090513          	mv	a0,s2
    80006394:	ffffb097          	auipc	ra,0xffffb
    80006398:	d04080e7          	jalr	-764(ra) # 0x80001098
    8000639c:	0004a783          	lw	a5,0(s1)
    800063a0:	02079a63          	bnez	a5,0x800063d4
    800063a4:	00000493          	li	s1,0
    800063a8:	00090513          	mv	a0,s2
    800063ac:	ffffb097          	auipc	ra,0xffffb
    800063b0:	de4080e7          	jalr	-540(ra) # 0x80001190
    800063b4:	00048513          	mv	a0,s1
    800063b8:	02813083          	ld	ra,40(sp)
    800063bc:	02013403          	ld	s0,32(sp)
    800063c0:	01813483          	ld	s1,24(sp)
    800063c4:	01013903          	ld	s2,16(sp)
    800063c8:	00813983          	ld	s3,8(sp)
    800063cc:	03010113          	addi	sp,sp,48
    800063d0:	00008067          	ret
    800063d4:	0284a983          	lw	s3,40(s1)
    800063d8:	ffffc097          	auipc	ra,0xffffc
    800063dc:	320080e7          	jalr	800(ra) # 0x800026f8
    800063e0:	03052483          	lw	s1,48(a0)
    800063e4:	413484b3          	sub	s1,s1,s3
    800063e8:	0014b493          	seqz	s1,s1
    800063ec:	fbdff06f          	j	0x800063a8
    800063f0:	ff010113          	addi	sp,sp,-16
    800063f4:	00113423          	sd	ra,8(sp)
    800063f8:	00813023          	sd	s0,0(sp)
    800063fc:	01010413          	addi	s0,sp,16
    80006400:	00004597          	auipc	a1,0x4
    80006404:	3c858593          	addi	a1,a1,968 # 0x8000a7c8
    80006408:	0001c517          	auipc	a0,0x1c
    8000640c:	7c850513          	addi	a0,a0,1992 # 0x80022bd0
    80006410:	ffffb097          	auipc	ra,0xffffb
    80006414:	ba4080e7          	jalr	-1116(ra) # 0x80000fb4
    80006418:	00813083          	ld	ra,8(sp)
    8000641c:	00013403          	ld	s0,0(sp)
    80006420:	01010113          	addi	sp,sp,16
    80006424:	00008067          	ret
    80006428:	fe010113          	addi	sp,sp,-32
    8000642c:	00113c23          	sd	ra,24(sp)
    80006430:	00813823          	sd	s0,16(sp)
    80006434:	00913423          	sd	s1,8(sp)
    80006438:	02010413          	addi	s0,sp,32
    8000643c:	0001c517          	auipc	a0,0x1c
    80006440:	79450513          	addi	a0,a0,1940 # 0x80022bd0
    80006444:	ffffb097          	auipc	ra,0xffffb
    80006448:	c54080e7          	jalr	-940(ra) # 0x80001098
    8000644c:	0001c497          	auipc	s1,0x1c
    80006450:	79c48493          	addi	s1,s1,1948 # 0x80022be8
    80006454:	0001d717          	auipc	a4,0x1d
    80006458:	73470713          	addi	a4,a4,1844 # 0x80023b88
    8000645c:	0044a783          	lw	a5,4(s1)
    80006460:	02078263          	beqz	a5,0x80006484
    80006464:	02848493          	addi	s1,s1,40
    80006468:	fee49ae3          	bne	s1,a4,0x8000645c
    8000646c:	0001c517          	auipc	a0,0x1c
    80006470:	76450513          	addi	a0,a0,1892 # 0x80022bd0
    80006474:	ffffb097          	auipc	ra,0xffffb
    80006478:	d1c080e7          	jalr	-740(ra) # 0x80001190
    8000647c:	00000493          	li	s1,0
    80006480:	01c0006f          	j	0x8000649c
    80006484:	00100793          	li	a5,1
    80006488:	00f4a223          	sw	a5,4(s1)
    8000648c:	0001c517          	auipc	a0,0x1c
    80006490:	74450513          	addi	a0,a0,1860 # 0x80022bd0
    80006494:	ffffb097          	auipc	ra,0xffffb
    80006498:	cfc080e7          	jalr	-772(ra) # 0x80001190
    8000649c:	00048513          	mv	a0,s1
    800064a0:	01813083          	ld	ra,24(sp)
    800064a4:	01013403          	ld	s0,16(sp)
    800064a8:	00813483          	ld	s1,8(sp)
    800064ac:	02010113          	addi	sp,sp,32
    800064b0:	00008067          	ret
    800064b4:	fe010113          	addi	sp,sp,-32
    800064b8:	00113c23          	sd	ra,24(sp)
    800064bc:	00813823          	sd	s0,16(sp)
    800064c0:	00913423          	sd	s1,8(sp)
    800064c4:	02010413          	addi	s0,sp,32
    800064c8:	00050493          	mv	s1,a0
    800064cc:	0001c517          	auipc	a0,0x1c
    800064d0:	70450513          	addi	a0,a0,1796 # 0x80022bd0
    800064d4:	ffffb097          	auipc	ra,0xffffb
    800064d8:	bc4080e7          	jalr	-1084(ra) # 0x80001098
    800064dc:	0044a783          	lw	a5,4(s1)
    800064e0:	02f05a63          	blez	a5,0x80006514
    800064e4:	0017879b          	addiw	a5,a5,1
    800064e8:	00f4a223          	sw	a5,4(s1)
    800064ec:	0001c517          	auipc	a0,0x1c
    800064f0:	6e450513          	addi	a0,a0,1764 # 0x80022bd0
    800064f4:	ffffb097          	auipc	ra,0xffffb
    800064f8:	c9c080e7          	jalr	-868(ra) # 0x80001190
    800064fc:	00048513          	mv	a0,s1
    80006500:	01813083          	ld	ra,24(sp)
    80006504:	01013403          	ld	s0,16(sp)
    80006508:	00813483          	ld	s1,8(sp)
    8000650c:	02010113          	addi	sp,sp,32
    80006510:	00008067          	ret
    80006514:	00004517          	auipc	a0,0x4
    80006518:	2bc50513          	addi	a0,a0,700 # 0x8000a7d0
    8000651c:	ffffa097          	auipc	ra,0xffffa
    80006520:	564080e7          	jalr	1380(ra) # 0x80000a80
    80006524:	fc010113          	addi	sp,sp,-64
    80006528:	02113c23          	sd	ra,56(sp)
    8000652c:	02813823          	sd	s0,48(sp)
    80006530:	02913423          	sd	s1,40(sp)
    80006534:	03213023          	sd	s2,32(sp)
    80006538:	01313c23          	sd	s3,24(sp)
    8000653c:	01413823          	sd	s4,16(sp)
    80006540:	01513423          	sd	s5,8(sp)
    80006544:	04010413          	addi	s0,sp,64
    80006548:	00050493          	mv	s1,a0
    8000654c:	0001c517          	auipc	a0,0x1c
    80006550:	68450513          	addi	a0,a0,1668 # 0x80022bd0
    80006554:	ffffb097          	auipc	ra,0xffffb
    80006558:	b44080e7          	jalr	-1212(ra) # 0x80001098
    8000655c:	0044a783          	lw	a5,4(s1)
    80006560:	06f05863          	blez	a5,0x800065d0
    80006564:	fff7879b          	addiw	a5,a5,-1
    80006568:	0007871b          	sext.w	a4,a5
    8000656c:	00f4a223          	sw	a5,4(s1)
    80006570:	06e04863          	bgtz	a4,0x800065e0
    80006574:	0004a903          	lw	s2,0(s1)
    80006578:	0094ca83          	lbu	s5,9(s1)
    8000657c:	0104ba03          	ld	s4,16(s1)
    80006580:	0184b983          	ld	s3,24(s1)
    80006584:	0004a223          	sw	zero,4(s1)
    80006588:	0004a023          	sw	zero,0(s1)
    8000658c:	0001c517          	auipc	a0,0x1c
    80006590:	64450513          	addi	a0,a0,1604 # 0x80022bd0
    80006594:	ffffb097          	auipc	ra,0xffffb
    80006598:	bfc080e7          	jalr	-1028(ra) # 0x80001190
    8000659c:	00100793          	li	a5,1
    800065a0:	06f90a63          	beq	s2,a5,0x80006614
    800065a4:	ffe9091b          	addiw	s2,s2,-2
    800065a8:	00100793          	li	a5,1
    800065ac:	0527e263          	bltu	a5,s2,0x800065f0
    800065b0:	00000097          	auipc	ra,0x0
    800065b4:	8f8080e7          	jalr	-1800(ra) # 0x80005ea8
    800065b8:	00098513          	mv	a0,s3
    800065bc:	fffff097          	auipc	ra,0xfffff
    800065c0:	b4c080e7          	jalr	-1204(ra) # 0x80005108
    800065c4:	00000097          	auipc	ra,0x0
    800065c8:	998080e7          	jalr	-1640(ra) # 0x80005f5c
    800065cc:	0240006f          	j	0x800065f0
    800065d0:	00004517          	auipc	a0,0x4
    800065d4:	20850513          	addi	a0,a0,520 # 0x8000a7d8
    800065d8:	ffffa097          	auipc	ra,0xffffa
    800065dc:	4a8080e7          	jalr	1192(ra) # 0x80000a80
    800065e0:	0001c517          	auipc	a0,0x1c
    800065e4:	5f050513          	addi	a0,a0,1520 # 0x80022bd0
    800065e8:	ffffb097          	auipc	ra,0xffffb
    800065ec:	ba8080e7          	jalr	-1112(ra) # 0x80001190
    800065f0:	03813083          	ld	ra,56(sp)
    800065f4:	03013403          	ld	s0,48(sp)
    800065f8:	02813483          	ld	s1,40(sp)
    800065fc:	02013903          	ld	s2,32(sp)
    80006600:	01813983          	ld	s3,24(sp)
    80006604:	01013a03          	ld	s4,16(sp)
    80006608:	00813a83          	ld	s5,8(sp)
    8000660c:	04010113          	addi	sp,sp,64
    80006610:	00008067          	ret
    80006614:	000a8593          	mv	a1,s5
    80006618:	000a0513          	mv	a0,s4
    8000661c:	00000097          	auipc	ra,0x0
    80006620:	4c0080e7          	jalr	1216(ra) # 0x80006adc
    80006624:	fcdff06f          	j	0x800065f0
    80006628:	fb010113          	addi	sp,sp,-80
    8000662c:	04113423          	sd	ra,72(sp)
    80006630:	04813023          	sd	s0,64(sp)
    80006634:	02913c23          	sd	s1,56(sp)
    80006638:	03213823          	sd	s2,48(sp)
    8000663c:	03313423          	sd	s3,40(sp)
    80006640:	05010413          	addi	s0,sp,80
    80006644:	00050493          	mv	s1,a0
    80006648:	00058993          	mv	s3,a1
    8000664c:	ffffc097          	auipc	ra,0xffffc
    80006650:	0ac080e7          	jalr	172(ra) # 0x800026f8
    80006654:	0004a783          	lw	a5,0(s1)
    80006658:	ffe7879b          	addiw	a5,a5,-2
    8000665c:	00100713          	li	a4,1
    80006660:	06f76463          	bltu	a4,a5,0x800066c8
    80006664:	00050913          	mv	s2,a0
    80006668:	0184b503          	ld	a0,24(s1)
    8000666c:	fffff097          	auipc	ra,0xfffff
    80006670:	83c080e7          	jalr	-1988(ra) # 0x80004ea8
    80006674:	fb840593          	addi	a1,s0,-72
    80006678:	0184b503          	ld	a0,24(s1)
    8000667c:	fffff097          	auipc	ra,0xfffff
    80006680:	da4080e7          	jalr	-604(ra) # 0x80005420
    80006684:	0184b503          	ld	a0,24(s1)
    80006688:	fffff097          	auipc	ra,0xfffff
    8000668c:	924080e7          	jalr	-1756(ra) # 0x80004fac
    80006690:	01800693          	li	a3,24
    80006694:	fb840613          	addi	a2,s0,-72
    80006698:	00098593          	mv	a1,s3
    8000669c:	05093503          	ld	a0,80(s2)
    800066a0:	ffffc097          	auipc	ra,0xffffc
    800066a4:	be4080e7          	jalr	-1052(ra) # 0x80002284
    800066a8:	41f5551b          	sraiw	a0,a0,0x1f
    800066ac:	04813083          	ld	ra,72(sp)
    800066b0:	04013403          	ld	s0,64(sp)
    800066b4:	03813483          	ld	s1,56(sp)
    800066b8:	03013903          	ld	s2,48(sp)
    800066bc:	02813983          	ld	s3,40(sp)
    800066c0:	05010113          	addi	sp,sp,80
    800066c4:	00008067          	ret
    800066c8:	fff00513          	li	a0,-1
    800066cc:	fe1ff06f          	j	0x800066ac
    800066d0:	fd010113          	addi	sp,sp,-48
    800066d4:	02113423          	sd	ra,40(sp)
    800066d8:	02813023          	sd	s0,32(sp)
    800066dc:	00913c23          	sd	s1,24(sp)
    800066e0:	01213823          	sd	s2,16(sp)
    800066e4:	01313423          	sd	s3,8(sp)
    800066e8:	03010413          	addi	s0,sp,48
    800066ec:	00854783          	lbu	a5,8(a0)
    800066f0:	0e078a63          	beqz	a5,0x800067e4
    800066f4:	00050493          	mv	s1,a0
    800066f8:	00058993          	mv	s3,a1
    800066fc:	00060913          	mv	s2,a2
    80006700:	00052783          	lw	a5,0(a0)
    80006704:	00100713          	li	a4,1
    80006708:	06e78e63          	beq	a5,a4,0x80006784
    8000670c:	00300713          	li	a4,3
    80006710:	08e78463          	beq	a5,a4,0x80006798
    80006714:	00200713          	li	a4,2
    80006718:	0ae79e63          	bne	a5,a4,0x800067d4
    8000671c:	01853503          	ld	a0,24(a0)
    80006720:	ffffe097          	auipc	ra,0xffffe
    80006724:	788080e7          	jalr	1928(ra) # 0x80004ea8
    80006728:	00090713          	mv	a4,s2
    8000672c:	0204a683          	lw	a3,32(s1)
    80006730:	00098613          	mv	a2,s3
    80006734:	00100593          	li	a1,1
    80006738:	0184b503          	ld	a0,24(s1)
    8000673c:	fffff097          	auipc	ra,0xfffff
    80006740:	d24080e7          	jalr	-732(ra) # 0x80005460
    80006744:	00050913          	mv	s2,a0
    80006748:	00a05863          	blez	a0,0x80006758
    8000674c:	0204a783          	lw	a5,32(s1)
    80006750:	00a787bb          	addw	a5,a5,a0
    80006754:	02f4a023          	sw	a5,32(s1)
    80006758:	0184b503          	ld	a0,24(s1)
    8000675c:	fffff097          	auipc	ra,0xfffff
    80006760:	850080e7          	jalr	-1968(ra) # 0x80004fac
    80006764:	00090513          	mv	a0,s2
    80006768:	02813083          	ld	ra,40(sp)
    8000676c:	02013403          	ld	s0,32(sp)
    80006770:	01813483          	ld	s1,24(sp)
    80006774:	01013903          	ld	s2,16(sp)
    80006778:	00813983          	ld	s3,8(sp)
    8000677c:	03010113          	addi	sp,sp,48
    80006780:	00008067          	ret
    80006784:	01053503          	ld	a0,16(a0)
    80006788:	00000097          	auipc	ra,0x0
    8000678c:	544080e7          	jalr	1348(ra) # 0x80006ccc
    80006790:	00050913          	mv	s2,a0
    80006794:	fd1ff06f          	j	0x80006764
    80006798:	02451783          	lh	a5,36(a0)
    8000679c:	03079693          	slli	a3,a5,0x30
    800067a0:	0306d693          	srli	a3,a3,0x30
    800067a4:	00900713          	li	a4,9
    800067a8:	04d76263          	bltu	a4,a3,0x800067ec
    800067ac:	00479793          	slli	a5,a5,0x4
    800067b0:	0001c717          	auipc	a4,0x1c
    800067b4:	38070713          	addi	a4,a4,896 # 0x80022b30
    800067b8:	00f707b3          	add	a5,a4,a5
    800067bc:	0007b783          	ld	a5,0(a5)
    800067c0:	02078a63          	beqz	a5,0x800067f4
    800067c4:	00100513          	li	a0,1
    800067c8:	000780e7          	jalr	a5
    800067cc:	00050913          	mv	s2,a0
    800067d0:	f95ff06f          	j	0x80006764
    800067d4:	00004517          	auipc	a0,0x4
    800067d8:	01450513          	addi	a0,a0,20 # 0x8000a7e8
    800067dc:	ffffa097          	auipc	ra,0xffffa
    800067e0:	2a4080e7          	jalr	676(ra) # 0x80000a80
    800067e4:	fff00913          	li	s2,-1
    800067e8:	f7dff06f          	j	0x80006764
    800067ec:	fff00913          	li	s2,-1
    800067f0:	f75ff06f          	j	0x80006764
    800067f4:	fff00913          	li	s2,-1
    800067f8:	f6dff06f          	j	0x80006764
    800067fc:	fb010113          	addi	sp,sp,-80
    80006800:	04113423          	sd	ra,72(sp)
    80006804:	04813023          	sd	s0,64(sp)
    80006808:	02913c23          	sd	s1,56(sp)
    8000680c:	03213823          	sd	s2,48(sp)
    80006810:	03313423          	sd	s3,40(sp)
    80006814:	03413023          	sd	s4,32(sp)
    80006818:	01513c23          	sd	s5,24(sp)
    8000681c:	01613823          	sd	s6,16(sp)
    80006820:	01713423          	sd	s7,8(sp)
    80006824:	01813023          	sd	s8,0(sp)
    80006828:	05010413          	addi	s0,sp,80
    8000682c:	00954783          	lbu	a5,9(a0)
    80006830:	16078463          	beqz	a5,0x80006998
    80006834:	00050913          	mv	s2,a0
    80006838:	00058b13          	mv	s6,a1
    8000683c:	00060a13          	mv	s4,a2
    80006840:	00052783          	lw	a5,0(a0)
    80006844:	00100713          	li	a4,1
    80006848:	02e78863          	beq	a5,a4,0x80006878
    8000684c:	00300713          	li	a4,3
    80006850:	02e78e63          	beq	a5,a4,0x8000688c
    80006854:	00200713          	li	a4,2
    80006858:	12e79863          	bne	a5,a4,0x80006988
    8000685c:	0ec05463          	blez	a2,0x80006944
    80006860:	00000993          	li	s3,0
    80006864:	00001bb7          	lui	s7,0x1
    80006868:	c00b8b93          	addi	s7,s7,-1024 # 0xc00
    8000686c:	00001c37          	lui	s8,0x1
    80006870:	c00c0c1b          	addiw	s8,s8,-1024 # 0xc00
    80006874:	0bc0006f          	j	0x80006930
    80006878:	01053503          	ld	a0,16(a0)
    8000687c:	00000097          	auipc	ra,0x0
    80006880:	2f8080e7          	jalr	760(ra) # 0x80006b74
    80006884:	00050a13          	mv	s4,a0
    80006888:	0c40006f          	j	0x8000694c
    8000688c:	02451783          	lh	a5,36(a0)
    80006890:	03079693          	slli	a3,a5,0x30
    80006894:	0306d693          	srli	a3,a3,0x30
    80006898:	00900713          	li	a4,9
    8000689c:	10d76263          	bltu	a4,a3,0x800069a0
    800068a0:	00479793          	slli	a5,a5,0x4
    800068a4:	0001c717          	auipc	a4,0x1c
    800068a8:	28c70713          	addi	a4,a4,652 # 0x80022b30
    800068ac:	00f707b3          	add	a5,a4,a5
    800068b0:	0087b783          	ld	a5,8(a5)
    800068b4:	0e078a63          	beqz	a5,0x800069a8
    800068b8:	00100513          	li	a0,1
    800068bc:	000780e7          	jalr	a5
    800068c0:	00050a13          	mv	s4,a0
    800068c4:	0880006f          	j	0x8000694c
    800068c8:	00048a9b          	sext.w	s5,s1
    800068cc:	fffff097          	auipc	ra,0xfffff
    800068d0:	5dc080e7          	jalr	1500(ra) # 0x80005ea8
    800068d4:	01893503          	ld	a0,24(s2)
    800068d8:	ffffe097          	auipc	ra,0xffffe
    800068dc:	5d0080e7          	jalr	1488(ra) # 0x80004ea8
    800068e0:	000a8713          	mv	a4,s5
    800068e4:	02092683          	lw	a3,32(s2)
    800068e8:	01698633          	add	a2,s3,s6
    800068ec:	00100593          	li	a1,1
    800068f0:	01893503          	ld	a0,24(s2)
    800068f4:	fffff097          	auipc	ra,0xfffff
    800068f8:	cdc080e7          	jalr	-804(ra) # 0x800055d0
    800068fc:	00050493          	mv	s1,a0
    80006900:	00a05863          	blez	a0,0x80006910
    80006904:	02092783          	lw	a5,32(s2)
    80006908:	00a787bb          	addw	a5,a5,a0
    8000690c:	02f92023          	sw	a5,32(s2)
    80006910:	01893503          	ld	a0,24(s2)
    80006914:	ffffe097          	auipc	ra,0xffffe
    80006918:	698080e7          	jalr	1688(ra) # 0x80004fac
    8000691c:	fffff097          	auipc	ra,0xfffff
    80006920:	640080e7          	jalr	1600(ra) # 0x80005f5c
    80006924:	029a9263          	bne	s5,s1,0x80006948
    80006928:	013489bb          	addw	s3,s1,s3
    8000692c:	0149de63          	bge	s3,s4,0x80006948
    80006930:	413a04bb          	subw	s1,s4,s3
    80006934:	0004879b          	sext.w	a5,s1
    80006938:	f8fbd8e3          	bge	s7,a5,0x800068c8
    8000693c:	000c0493          	mv	s1,s8
    80006940:	f89ff06f          	j	0x800068c8
    80006944:	00000993          	li	s3,0
    80006948:	033a1c63          	bne	s4,s3,0x80006980
    8000694c:	000a0513          	mv	a0,s4
    80006950:	04813083          	ld	ra,72(sp)
    80006954:	04013403          	ld	s0,64(sp)
    80006958:	03813483          	ld	s1,56(sp)
    8000695c:	03013903          	ld	s2,48(sp)
    80006960:	02813983          	ld	s3,40(sp)
    80006964:	02013a03          	ld	s4,32(sp)
    80006968:	01813a83          	ld	s5,24(sp)
    8000696c:	01013b03          	ld	s6,16(sp)
    80006970:	00813b83          	ld	s7,8(sp)
    80006974:	00013c03          	ld	s8,0(sp)
    80006978:	05010113          	addi	sp,sp,80
    8000697c:	00008067          	ret
    80006980:	fff00a13          	li	s4,-1
    80006984:	fc9ff06f          	j	0x8000694c
    80006988:	00004517          	auipc	a0,0x4
    8000698c:	e7050513          	addi	a0,a0,-400 # 0x8000a7f8
    80006990:	ffffa097          	auipc	ra,0xffffa
    80006994:	0f0080e7          	jalr	240(ra) # 0x80000a80
    80006998:	fff00a13          	li	s4,-1
    8000699c:	fb1ff06f          	j	0x8000694c
    800069a0:	fff00a13          	li	s4,-1
    800069a4:	fa9ff06f          	j	0x8000694c
    800069a8:	fff00a13          	li	s4,-1
    800069ac:	fa1ff06f          	j	0x8000694c
    800069b0:	fd010113          	addi	sp,sp,-48
    800069b4:	02113423          	sd	ra,40(sp)
    800069b8:	02813023          	sd	s0,32(sp)
    800069bc:	00913c23          	sd	s1,24(sp)
    800069c0:	01213823          	sd	s2,16(sp)
    800069c4:	01313423          	sd	s3,8(sp)
    800069c8:	01413023          	sd	s4,0(sp)
    800069cc:	03010413          	addi	s0,sp,48
    800069d0:	00050493          	mv	s1,a0
    800069d4:	00058a13          	mv	s4,a1
    800069d8:	0005b023          	sd	zero,0(a1)
    800069dc:	00053023          	sd	zero,0(a0)
    800069e0:	00000097          	auipc	ra,0x0
    800069e4:	a48080e7          	jalr	-1464(ra) # 0x80006428
    800069e8:	00a4b023          	sd	a0,0(s1)
    800069ec:	0a050663          	beqz	a0,0x80006a98
    800069f0:	00000097          	auipc	ra,0x0
    800069f4:	a38080e7          	jalr	-1480(ra) # 0x80006428
    800069f8:	00aa3023          	sd	a0,0(s4)
    800069fc:	08050663          	beqz	a0,0x80006a88
    80006a00:	ffffa097          	auipc	ra,0xffffa
    80006a04:	52c080e7          	jalr	1324(ra) # 0x80000f2c
    80006a08:	00050913          	mv	s2,a0
    80006a0c:	06050863          	beqz	a0,0x80006a7c
    80006a10:	00100993          	li	s3,1
    80006a14:	23352023          	sw	s3,544(a0)
    80006a18:	23352223          	sw	s3,548(a0)
    80006a1c:	20052e23          	sw	zero,540(a0)
    80006a20:	20052c23          	sw	zero,536(a0)
    80006a24:	00004597          	auipc	a1,0x4
    80006a28:	de458593          	addi	a1,a1,-540 # 0x8000a808
    80006a2c:	ffffa097          	auipc	ra,0xffffa
    80006a30:	588080e7          	jalr	1416(ra) # 0x80000fb4
    80006a34:	0004b783          	ld	a5,0(s1)
    80006a38:	0137a023          	sw	s3,0(a5)
    80006a3c:	0004b783          	ld	a5,0(s1)
    80006a40:	01378423          	sb	s3,8(a5)
    80006a44:	0004b783          	ld	a5,0(s1)
    80006a48:	000784a3          	sb	zero,9(a5)
    80006a4c:	0004b783          	ld	a5,0(s1)
    80006a50:	0127b823          	sd	s2,16(a5)
    80006a54:	000a3783          	ld	a5,0(s4)
    80006a58:	0137a023          	sw	s3,0(a5)
    80006a5c:	000a3783          	ld	a5,0(s4)
    80006a60:	00078423          	sb	zero,8(a5)
    80006a64:	000a3783          	ld	a5,0(s4)
    80006a68:	013784a3          	sb	s3,9(a5)
    80006a6c:	000a3783          	ld	a5,0(s4)
    80006a70:	0127b823          	sd	s2,16(a5)
    80006a74:	00000513          	li	a0,0
    80006a78:	03c0006f          	j	0x80006ab4
    80006a7c:	0004b503          	ld	a0,0(s1)
    80006a80:	00051863          	bnez	a0,0x80006a90
    80006a84:	0140006f          	j	0x80006a98
    80006a88:	0004b503          	ld	a0,0(s1)
    80006a8c:	04050463          	beqz	a0,0x80006ad4
    80006a90:	00000097          	auipc	ra,0x0
    80006a94:	a94080e7          	jalr	-1388(ra) # 0x80006524
    80006a98:	000a3783          	ld	a5,0(s4)
    80006a9c:	fff00513          	li	a0,-1
    80006aa0:	00078a63          	beqz	a5,0x80006ab4
    80006aa4:	00078513          	mv	a0,a5
    80006aa8:	00000097          	auipc	ra,0x0
    80006aac:	a7c080e7          	jalr	-1412(ra) # 0x80006524
    80006ab0:	fff00513          	li	a0,-1
    80006ab4:	02813083          	ld	ra,40(sp)
    80006ab8:	02013403          	ld	s0,32(sp)
    80006abc:	01813483          	ld	s1,24(sp)
    80006ac0:	01013903          	ld	s2,16(sp)
    80006ac4:	00813983          	ld	s3,8(sp)
    80006ac8:	00013a03          	ld	s4,0(sp)
    80006acc:	03010113          	addi	sp,sp,48
    80006ad0:	00008067          	ret
    80006ad4:	fff00513          	li	a0,-1
    80006ad8:	fddff06f          	j	0x80006ab4
    80006adc:	fe010113          	addi	sp,sp,-32
    80006ae0:	00113c23          	sd	ra,24(sp)
    80006ae4:	00813823          	sd	s0,16(sp)
    80006ae8:	00913423          	sd	s1,8(sp)
    80006aec:	01213023          	sd	s2,0(sp)
    80006af0:	02010413          	addi	s0,sp,32
    80006af4:	00050493          	mv	s1,a0
    80006af8:	00058913          	mv	s2,a1
    80006afc:	ffffa097          	auipc	ra,0xffffa
    80006b00:	59c080e7          	jalr	1436(ra) # 0x80001098
    80006b04:	04090663          	beqz	s2,0x80006b50
    80006b08:	2204a223          	sw	zero,548(s1)
    80006b0c:	21848513          	addi	a0,s1,536
    80006b10:	ffffc097          	auipc	ra,0xffffc
    80006b14:	630080e7          	jalr	1584(ra) # 0x80003140
    80006b18:	2204b783          	ld	a5,544(s1)
    80006b1c:	04079463          	bnez	a5,0x80006b64
    80006b20:	00048513          	mv	a0,s1
    80006b24:	ffffa097          	auipc	ra,0xffffa
    80006b28:	66c080e7          	jalr	1644(ra) # 0x80001190
    80006b2c:	00048513          	mv	a0,s1
    80006b30:	ffffa097          	auipc	ra,0xffffa
    80006b34:	290080e7          	jalr	656(ra) # 0x80000dc0
    80006b38:	01813083          	ld	ra,24(sp)
    80006b3c:	01013403          	ld	s0,16(sp)
    80006b40:	00813483          	ld	s1,8(sp)
    80006b44:	00013903          	ld	s2,0(sp)
    80006b48:	02010113          	addi	sp,sp,32
    80006b4c:	00008067          	ret
    80006b50:	2204a023          	sw	zero,544(s1)
    80006b54:	21c48513          	addi	a0,s1,540
    80006b58:	ffffc097          	auipc	ra,0xffffc
    80006b5c:	5e8080e7          	jalr	1512(ra) # 0x80003140
    80006b60:	fb9ff06f          	j	0x80006b18
    80006b64:	00048513          	mv	a0,s1
    80006b68:	ffffa097          	auipc	ra,0xffffa
    80006b6c:	628080e7          	jalr	1576(ra) # 0x80001190
    80006b70:	fc9ff06f          	j	0x80006b38
    80006b74:	fa010113          	addi	sp,sp,-96
    80006b78:	04113c23          	sd	ra,88(sp)
    80006b7c:	04813823          	sd	s0,80(sp)
    80006b80:	04913423          	sd	s1,72(sp)
    80006b84:	05213023          	sd	s2,64(sp)
    80006b88:	03313c23          	sd	s3,56(sp)
    80006b8c:	03413823          	sd	s4,48(sp)
    80006b90:	03513423          	sd	s5,40(sp)
    80006b94:	03613023          	sd	s6,32(sp)
    80006b98:	01713c23          	sd	s7,24(sp)
    80006b9c:	01813823          	sd	s8,16(sp)
    80006ba0:	06010413          	addi	s0,sp,96
    80006ba4:	00050493          	mv	s1,a0
    80006ba8:	00058a93          	mv	s5,a1
    80006bac:	00060a13          	mv	s4,a2
    80006bb0:	ffffc097          	auipc	ra,0xffffc
    80006bb4:	b48080e7          	jalr	-1208(ra) # 0x800026f8
    80006bb8:	00050993          	mv	s3,a0
    80006bbc:	00048513          	mv	a0,s1
    80006bc0:	ffffa097          	auipc	ra,0xffffa
    80006bc4:	4d8080e7          	jalr	1240(ra) # 0x80001098
    80006bc8:	0f405263          	blez	s4,0x80006cac
    80006bcc:	00000913          	li	s2,0
    80006bd0:	fff00b13          	li	s6,-1
    80006bd4:	21848c13          	addi	s8,s1,536
    80006bd8:	21c48b93          	addi	s7,s1,540
    80006bdc:	0680006f          	j	0x80006c44
    80006be0:	00048513          	mv	a0,s1
    80006be4:	ffffa097          	auipc	ra,0xffffa
    80006be8:	5ac080e7          	jalr	1452(ra) # 0x80001190
    80006bec:	fff00913          	li	s2,-1
    80006bf0:	00090513          	mv	a0,s2
    80006bf4:	05813083          	ld	ra,88(sp)
    80006bf8:	05013403          	ld	s0,80(sp)
    80006bfc:	04813483          	ld	s1,72(sp)
    80006c00:	04013903          	ld	s2,64(sp)
    80006c04:	03813983          	ld	s3,56(sp)
    80006c08:	03013a03          	ld	s4,48(sp)
    80006c0c:	02813a83          	ld	s5,40(sp)
    80006c10:	02013b03          	ld	s6,32(sp)
    80006c14:	01813b83          	ld	s7,24(sp)
    80006c18:	01013c03          	ld	s8,16(sp)
    80006c1c:	06010113          	addi	sp,sp,96
    80006c20:	00008067          	ret
    80006c24:	000c0513          	mv	a0,s8
    80006c28:	ffffc097          	auipc	ra,0xffffc
    80006c2c:	518080e7          	jalr	1304(ra) # 0x80003140
    80006c30:	00048593          	mv	a1,s1
    80006c34:	000b8513          	mv	a0,s7
    80006c38:	ffffc097          	auipc	ra,0xffffc
    80006c3c:	478080e7          	jalr	1144(ra) # 0x800030b0
    80006c40:	07495863          	bge	s2,s4,0x80006cb0
    80006c44:	2204a783          	lw	a5,544(s1)
    80006c48:	f8078ce3          	beqz	a5,0x80006be0
    80006c4c:	00098513          	mv	a0,s3
    80006c50:	ffffd097          	auipc	ra,0xffffd
    80006c54:	810080e7          	jalr	-2032(ra) # 0x80003460
    80006c58:	f80514e3          	bnez	a0,0x80006be0
    80006c5c:	2184a783          	lw	a5,536(s1)
    80006c60:	21c4a703          	lw	a4,540(s1)
    80006c64:	2007879b          	addiw	a5,a5,512
    80006c68:	faf70ee3          	beq	a4,a5,0x80006c24
    80006c6c:	00100693          	li	a3,1
    80006c70:	01590633          	add	a2,s2,s5
    80006c74:	faf40593          	addi	a1,s0,-81
    80006c78:	0509b503          	ld	a0,80(s3)
    80006c7c:	ffffb097          	auipc	ra,0xffffb
    80006c80:	770080e7          	jalr	1904(ra) # 0x800023ec
    80006c84:	03650663          	beq	a0,s6,0x80006cb0
    80006c88:	21c4a783          	lw	a5,540(s1)
    80006c8c:	0017871b          	addiw	a4,a5,1
    80006c90:	20e4ae23          	sw	a4,540(s1)
    80006c94:	1ff7f793          	andi	a5,a5,511
    80006c98:	00f487b3          	add	a5,s1,a5
    80006c9c:	faf44703          	lbu	a4,-81(s0)
    80006ca0:	00e78c23          	sb	a4,24(a5)
    80006ca4:	0019091b          	addiw	s2,s2,1
    80006ca8:	f99ff06f          	j	0x80006c40
    80006cac:	00000913          	li	s2,0
    80006cb0:	21848513          	addi	a0,s1,536
    80006cb4:	ffffc097          	auipc	ra,0xffffc
    80006cb8:	48c080e7          	jalr	1164(ra) # 0x80003140
    80006cbc:	00048513          	mv	a0,s1
    80006cc0:	ffffa097          	auipc	ra,0xffffa
    80006cc4:	4d0080e7          	jalr	1232(ra) # 0x80001190
    80006cc8:	f29ff06f          	j	0x80006bf0
    80006ccc:	fb010113          	addi	sp,sp,-80
    80006cd0:	04113423          	sd	ra,72(sp)
    80006cd4:	04813023          	sd	s0,64(sp)
    80006cd8:	02913c23          	sd	s1,56(sp)
    80006cdc:	03213823          	sd	s2,48(sp)
    80006ce0:	03313423          	sd	s3,40(sp)
    80006ce4:	03413023          	sd	s4,32(sp)
    80006ce8:	01513c23          	sd	s5,24(sp)
    80006cec:	01613823          	sd	s6,16(sp)
    80006cf0:	05010413          	addi	s0,sp,80
    80006cf4:	00050493          	mv	s1,a0
    80006cf8:	00058913          	mv	s2,a1
    80006cfc:	00060a93          	mv	s5,a2
    80006d00:	ffffc097          	auipc	ra,0xffffc
    80006d04:	9f8080e7          	jalr	-1544(ra) # 0x800026f8
    80006d08:	00050a13          	mv	s4,a0
    80006d0c:	00048513          	mv	a0,s1
    80006d10:	ffffa097          	auipc	ra,0xffffa
    80006d14:	388080e7          	jalr	904(ra) # 0x80001098
    80006d18:	2184a703          	lw	a4,536(s1)
    80006d1c:	21c4a783          	lw	a5,540(s1)
    80006d20:	21848993          	addi	s3,s1,536
    80006d24:	02f71c63          	bne	a4,a5,0x80006d5c
    80006d28:	2244a783          	lw	a5,548(s1)
    80006d2c:	02078863          	beqz	a5,0x80006d5c
    80006d30:	000a0513          	mv	a0,s4
    80006d34:	ffffc097          	auipc	ra,0xffffc
    80006d38:	72c080e7          	jalr	1836(ra) # 0x80003460
    80006d3c:	0c051063          	bnez	a0,0x80006dfc
    80006d40:	00048593          	mv	a1,s1
    80006d44:	00098513          	mv	a0,s3
    80006d48:	ffffc097          	auipc	ra,0xffffc
    80006d4c:	368080e7          	jalr	872(ra) # 0x800030b0
    80006d50:	2184a703          	lw	a4,536(s1)
    80006d54:	21c4a783          	lw	a5,540(s1)
    80006d58:	fcf708e3          	beq	a4,a5,0x80006d28
    80006d5c:	00000993          	li	s3,0
    80006d60:	fff00b13          	li	s6,-1
    80006d64:	05505a63          	blez	s5,0x80006db8
    80006d68:	2184a783          	lw	a5,536(s1)
    80006d6c:	21c4a703          	lw	a4,540(s1)
    80006d70:	04f70463          	beq	a4,a5,0x80006db8
    80006d74:	0017871b          	addiw	a4,a5,1
    80006d78:	20e4ac23          	sw	a4,536(s1)
    80006d7c:	1ff7f793          	andi	a5,a5,511
    80006d80:	00f487b3          	add	a5,s1,a5
    80006d84:	0187c783          	lbu	a5,24(a5)
    80006d88:	faf40fa3          	sb	a5,-65(s0)
    80006d8c:	00100693          	li	a3,1
    80006d90:	fbf40613          	addi	a2,s0,-65
    80006d94:	00090593          	mv	a1,s2
    80006d98:	050a3503          	ld	a0,80(s4)
    80006d9c:	ffffb097          	auipc	ra,0xffffb
    80006da0:	4e8080e7          	jalr	1256(ra) # 0x80002284
    80006da4:	01650a63          	beq	a0,s6,0x80006db8
    80006da8:	0019899b          	addiw	s3,s3,1
    80006dac:	00190913          	addi	s2,s2,1
    80006db0:	fb3a9ce3          	bne	s5,s3,0x80006d68
    80006db4:	000a8993          	mv	s3,s5
    80006db8:	21c48513          	addi	a0,s1,540
    80006dbc:	ffffc097          	auipc	ra,0xffffc
    80006dc0:	384080e7          	jalr	900(ra) # 0x80003140
    80006dc4:	00048513          	mv	a0,s1
    80006dc8:	ffffa097          	auipc	ra,0xffffa
    80006dcc:	3c8080e7          	jalr	968(ra) # 0x80001190
    80006dd0:	00098513          	mv	a0,s3
    80006dd4:	04813083          	ld	ra,72(sp)
    80006dd8:	04013403          	ld	s0,64(sp)
    80006ddc:	03813483          	ld	s1,56(sp)
    80006de0:	03013903          	ld	s2,48(sp)
    80006de4:	02813983          	ld	s3,40(sp)
    80006de8:	02013a03          	ld	s4,32(sp)
    80006dec:	01813a83          	ld	s5,24(sp)
    80006df0:	01013b03          	ld	s6,16(sp)
    80006df4:	05010113          	addi	sp,sp,80
    80006df8:	00008067          	ret
    80006dfc:	00048513          	mv	a0,s1
    80006e00:	ffffa097          	auipc	ra,0xffffa
    80006e04:	390080e7          	jalr	912(ra) # 0x80001190
    80006e08:	fff00993          	li	s3,-1
    80006e0c:	fc5ff06f          	j	0x80006dd0
    80006e10:	ff010113          	addi	sp,sp,-16
    80006e14:	00813423          	sd	s0,8(sp)
    80006e18:	01010413          	addi	s0,sp,16
    80006e1c:	00050793          	mv	a5,a0
    80006e20:	00157513          	andi	a0,a0,1
    80006e24:	00351513          	slli	a0,a0,0x3
    80006e28:	0027f793          	andi	a5,a5,2
    80006e2c:	00078463          	beqz	a5,0x80006e34
    80006e30:	00456513          	ori	a0,a0,4
    80006e34:	00813403          	ld	s0,8(sp)
    80006e38:	01010113          	addi	sp,sp,16
    80006e3c:	00008067          	ret
    80006e40:	de010113          	addi	sp,sp,-544
    80006e44:	20113c23          	sd	ra,536(sp)
    80006e48:	20813823          	sd	s0,528(sp)
    80006e4c:	20913423          	sd	s1,520(sp)
    80006e50:	21213023          	sd	s2,512(sp)
    80006e54:	1f313c23          	sd	s3,504(sp)
    80006e58:	1f413823          	sd	s4,496(sp)
    80006e5c:	1f513423          	sd	s5,488(sp)
    80006e60:	1f613023          	sd	s6,480(sp)
    80006e64:	1d713c23          	sd	s7,472(sp)
    80006e68:	1d813823          	sd	s8,464(sp)
    80006e6c:	1d913423          	sd	s9,456(sp)
    80006e70:	1da13023          	sd	s10,448(sp)
    80006e74:	1bb13c23          	sd	s11,440(sp)
    80006e78:	22010413          	addi	s0,sp,544
    80006e7c:	00050913          	mv	s2,a0
    80006e80:	dea43423          	sd	a0,-536(s0)
    80006e84:	deb43823          	sd	a1,-528(s0)
    80006e88:	ffffc097          	auipc	ra,0xffffc
    80006e8c:	870080e7          	jalr	-1936(ra) # 0x800026f8
    80006e90:	00050493          	mv	s1,a0
    80006e94:	fffff097          	auipc	ra,0xfffff
    80006e98:	014080e7          	jalr	20(ra) # 0x80005ea8
    80006e9c:	00090513          	mv	a0,s2
    80006ea0:	fffff097          	auipc	ra,0xfffff
    80006ea4:	cf4080e7          	jalr	-780(ra) # 0x80005b94
    80006ea8:	08050c63          	beqz	a0,0x80006f40
    80006eac:	00050a93          	mv	s5,a0
    80006eb0:	ffffe097          	auipc	ra,0xffffe
    80006eb4:	ff8080e7          	jalr	-8(ra) # 0x80004ea8
    80006eb8:	04000713          	li	a4,64
    80006ebc:	00000693          	li	a3,0
    80006ec0:	e5040613          	addi	a2,s0,-432
    80006ec4:	00000593          	li	a1,0
    80006ec8:	000a8513          	mv	a0,s5
    80006ecc:	ffffe097          	auipc	ra,0xffffe
    80006ed0:	594080e7          	jalr	1428(ra) # 0x80005460
    80006ed4:	04000793          	li	a5,64
    80006ed8:	00f51a63          	bne	a0,a5,0x80006eec
    80006edc:	e5042703          	lw	a4,-432(s0)
    80006ee0:	464c47b7          	lui	a5,0x464c4
    80006ee4:	57f78793          	addi	a5,a5,1407 # 0x464c457f
    80006ee8:	06f70463          	beq	a4,a5,0x80006f50
    80006eec:	000a8513          	mv	a0,s5
    80006ef0:	ffffe097          	auipc	ra,0xffffe
    80006ef4:	2f4080e7          	jalr	756(ra) # 0x800051e4
    80006ef8:	fffff097          	auipc	ra,0xfffff
    80006efc:	064080e7          	jalr	100(ra) # 0x80005f5c
    80006f00:	fff00513          	li	a0,-1
    80006f04:	21813083          	ld	ra,536(sp)
    80006f08:	21013403          	ld	s0,528(sp)
    80006f0c:	20813483          	ld	s1,520(sp)
    80006f10:	20013903          	ld	s2,512(sp)
    80006f14:	1f813983          	ld	s3,504(sp)
    80006f18:	1f013a03          	ld	s4,496(sp)
    80006f1c:	1e813a83          	ld	s5,488(sp)
    80006f20:	1e013b03          	ld	s6,480(sp)
    80006f24:	1d813b83          	ld	s7,472(sp)
    80006f28:	1d013c03          	ld	s8,464(sp)
    80006f2c:	1c813c83          	ld	s9,456(sp)
    80006f30:	1c013d03          	ld	s10,448(sp)
    80006f34:	1b813d83          	ld	s11,440(sp)
    80006f38:	22010113          	addi	sp,sp,544
    80006f3c:	00008067          	ret
    80006f40:	fffff097          	auipc	ra,0xfffff
    80006f44:	01c080e7          	jalr	28(ra) # 0x80005f5c
    80006f48:	fff00513          	li	a0,-1
    80006f4c:	fb9ff06f          	j	0x80006f04
    80006f50:	00048513          	mv	a0,s1
    80006f54:	ffffc097          	auipc	ra,0xffffc
    80006f58:	94c080e7          	jalr	-1716(ra) # 0x800028a0
    80006f5c:	00050b13          	mv	s6,a0
    80006f60:	f80506e3          	beqz	a0,0x80006eec
    80006f64:	e7042783          	lw	a5,-400(s0)
    80006f68:	e8845703          	lhu	a4,-376(s0)
    80006f6c:	08070863          	beqz	a4,0x80006ffc
    80006f70:	00000913          	li	s2,0
    80006f74:	e0043423          	sd	zero,-504(s0)
    80006f78:	00001a37          	lui	s4,0x1
    80006f7c:	fffa0713          	addi	a4,s4,-1 # 0xfff
    80006f80:	dee43023          	sd	a4,-544(s0)
    80006f84:	00001db7          	lui	s11,0x1
    80006f88:	fffffd37          	lui	s10,0xfffff
    80006f8c:	2d80006f          	j	0x80007264
    80006f90:	00004517          	auipc	a0,0x4
    80006f94:	88050513          	addi	a0,a0,-1920 # 0x8000a810
    80006f98:	ffffa097          	auipc	ra,0xffffa
    80006f9c:	ae8080e7          	jalr	-1304(ra) # 0x80000a80
    80006fa0:	00090713          	mv	a4,s2
    80006fa4:	009c86bb          	addw	a3,s9,s1
    80006fa8:	00000593          	li	a1,0
    80006fac:	000a8513          	mv	a0,s5
    80006fb0:	ffffe097          	auipc	ra,0xffffe
    80006fb4:	4b0080e7          	jalr	1200(ra) # 0x80005460
    80006fb8:	0005051b          	sext.w	a0,a0
    80006fbc:	22a91463          	bne	s2,a0,0x800071e4
    80006fc0:	009d84bb          	addw	s1,s11,s1
    80006fc4:	013d09bb          	addw	s3,s10,s3
    80006fc8:	2774fe63          	bgeu	s1,s7,0x80007244
    80006fcc:	02049593          	slli	a1,s1,0x20
    80006fd0:	0205d593          	srli	a1,a1,0x20
    80006fd4:	018585b3          	add	a1,a1,s8
    80006fd8:	000b0513          	mv	a0,s6
    80006fdc:	ffffb097          	auipc	ra,0xffffb
    80006fe0:	80c080e7          	jalr	-2036(ra) # 0x800017e8
    80006fe4:	00050613          	mv	a2,a0
    80006fe8:	fa0504e3          	beqz	a0,0x80006f90
    80006fec:	000a0913          	mv	s2,s4
    80006ff0:	fb49f8e3          	bgeu	s3,s4,0x80006fa0
    80006ff4:	00098913          	mv	s2,s3
    80006ff8:	fa9ff06f          	j	0x80006fa0
    80006ffc:	00000913          	li	s2,0
    80007000:	000a8513          	mv	a0,s5
    80007004:	ffffe097          	auipc	ra,0xffffe
    80007008:	1e0080e7          	jalr	480(ra) # 0x800051e4
    8000700c:	fffff097          	auipc	ra,0xfffff
    80007010:	f50080e7          	jalr	-176(ra) # 0x80005f5c
    80007014:	ffffb097          	auipc	ra,0xffffb
    80007018:	6e4080e7          	jalr	1764(ra) # 0x800026f8
    8000701c:	00050b93          	mv	s7,a0
    80007020:	04853d03          	ld	s10,72(a0)
    80007024:	000017b7          	lui	a5,0x1
    80007028:	fff78793          	addi	a5,a5,-1 # 0xfff
    8000702c:	00f907b3          	add	a5,s2,a5
    80007030:	fffff737          	lui	a4,0xfffff
    80007034:	00e7f7b3          	and	a5,a5,a4
    80007038:	def43c23          	sd	a5,-520(s0)
    8000703c:	00400693          	li	a3,4
    80007040:	00002637          	lui	a2,0x2
    80007044:	00c78633          	add	a2,a5,a2
    80007048:	00078593          	mv	a1,a5
    8000704c:	000b0513          	mv	a0,s6
    80007050:	ffffb097          	auipc	ra,0xffffb
    80007054:	c68080e7          	jalr	-920(ra) # 0x80001cb8
    80007058:	00050c13          	mv	s8,a0
    8000705c:	00000a93          	li	s5,0
    80007060:	18050263          	beqz	a0,0x800071e4
    80007064:	ffffe5b7          	lui	a1,0xffffe
    80007068:	00b505b3          	add	a1,a0,a1
    8000706c:	000b0513          	mv	a0,s6
    80007070:	ffffb097          	auipc	ra,0xffffb
    80007074:	f90080e7          	jalr	-112(ra) # 0x80002000
    80007078:	fffffab7          	lui	s5,0xfffff
    8000707c:	015c0ab3          	add	s5,s8,s5
    80007080:	df043783          	ld	a5,-528(s0)
    80007084:	0007b503          	ld	a0,0(a5)
    80007088:	08050463          	beqz	a0,0x80007110
    8000708c:	e9040993          	addi	s3,s0,-368
    80007090:	f9040c93          	addi	s9,s0,-112
    80007094:	000c0913          	mv	s2,s8
    80007098:	00000493          	li	s1,0
    8000709c:	ffffa097          	auipc	ra,0xffffa
    800070a0:	3a0080e7          	jalr	928(ra) # 0x8000143c
    800070a4:	0015079b          	addiw	a5,a0,1
    800070a8:	40f907b3          	sub	a5,s2,a5
    800070ac:	ff07f913          	andi	s2,a5,-16
    800070b0:	17596863          	bltu	s2,s5,0x80007220
    800070b4:	df043d83          	ld	s11,-528(s0)
    800070b8:	000dba03          	ld	s4,0(s11) # 0x1000
    800070bc:	000a0513          	mv	a0,s4
    800070c0:	ffffa097          	auipc	ra,0xffffa
    800070c4:	37c080e7          	jalr	892(ra) # 0x8000143c
    800070c8:	0015069b          	addiw	a3,a0,1
    800070cc:	000a0613          	mv	a2,s4
    800070d0:	00090593          	mv	a1,s2
    800070d4:	000b0513          	mv	a0,s6
    800070d8:	ffffb097          	auipc	ra,0xffffb
    800070dc:	1ac080e7          	jalr	428(ra) # 0x80002284
    800070e0:	14054663          	bltz	a0,0x8000722c
    800070e4:	0129b023          	sd	s2,0(s3)
    800070e8:	00148493          	addi	s1,s1,1
    800070ec:	008d8793          	addi	a5,s11,8
    800070f0:	def43823          	sd	a5,-528(s0)
    800070f4:	008db503          	ld	a0,8(s11)
    800070f8:	02050063          	beqz	a0,0x80007118
    800070fc:	00898993          	addi	s3,s3,8
    80007100:	f93c9ee3          	bne	s9,s3,0x8000709c
    80007104:	df843c23          	sd	s8,-520(s0)
    80007108:	00000a93          	li	s5,0
    8000710c:	0d80006f          	j	0x800071e4
    80007110:	000c0913          	mv	s2,s8
    80007114:	00000493          	li	s1,0
    80007118:	00349793          	slli	a5,s1,0x3
    8000711c:	f9078793          	addi	a5,a5,-112
    80007120:	008787b3          	add	a5,a5,s0
    80007124:	f007b023          	sd	zero,-256(a5)
    80007128:	00148693          	addi	a3,s1,1
    8000712c:	00369693          	slli	a3,a3,0x3
    80007130:	40d90933          	sub	s2,s2,a3
    80007134:	ff097913          	andi	s2,s2,-16
    80007138:	01597863          	bgeu	s2,s5,0x80007148
    8000713c:	df843c23          	sd	s8,-520(s0)
    80007140:	00000a93          	li	s5,0
    80007144:	0a00006f          	j	0x800071e4
    80007148:	e9040613          	addi	a2,s0,-368
    8000714c:	00090593          	mv	a1,s2
    80007150:	000b0513          	mv	a0,s6
    80007154:	ffffb097          	auipc	ra,0xffffb
    80007158:	130080e7          	jalr	304(ra) # 0x80002284
    8000715c:	0c054e63          	bltz	a0,0x80007238
    80007160:	058bb783          	ld	a5,88(s7)
    80007164:	0727bc23          	sd	s2,120(a5)
    80007168:	de843783          	ld	a5,-536(s0)
    8000716c:	0007c703          	lbu	a4,0(a5)
    80007170:	02070463          	beqz	a4,0x80007198
    80007174:	00178793          	addi	a5,a5,1
    80007178:	02f00693          	li	a3,47
    8000717c:	0140006f          	j	0x80007190
    80007180:	def43423          	sd	a5,-536(s0)
    80007184:	00178793          	addi	a5,a5,1
    80007188:	fff7c703          	lbu	a4,-1(a5)
    8000718c:	00070663          	beqz	a4,0x80007198
    80007190:	fed71ae3          	bne	a4,a3,0x80007184
    80007194:	fedff06f          	j	0x80007180
    80007198:	01000613          	li	a2,16
    8000719c:	de843583          	ld	a1,-536(s0)
    800071a0:	158b8513          	addi	a0,s7,344
    800071a4:	ffffa097          	auipc	ra,0xffffa
    800071a8:	24c080e7          	jalr	588(ra) # 0x800013f0
    800071ac:	050bb503          	ld	a0,80(s7)
    800071b0:	056bb823          	sd	s6,80(s7)
    800071b4:	058bb423          	sd	s8,72(s7)
    800071b8:	058bb783          	ld	a5,88(s7)
    800071bc:	e6843703          	ld	a4,-408(s0)
    800071c0:	00e7bc23          	sd	a4,24(a5)
    800071c4:	058bb783          	ld	a5,88(s7)
    800071c8:	0327b823          	sd	s2,48(a5)
    800071cc:	000d0593          	mv	a1,s10
    800071d0:	ffffb097          	auipc	ra,0xffffb
    800071d4:	7b8080e7          	jalr	1976(ra) # 0x80002988
    800071d8:	0004851b          	sext.w	a0,s1
    800071dc:	d29ff06f          	j	0x80006f04
    800071e0:	df243c23          	sd	s2,-520(s0)
    800071e4:	df843583          	ld	a1,-520(s0)
    800071e8:	000b0513          	mv	a0,s6
    800071ec:	ffffb097          	auipc	ra,0xffffb
    800071f0:	79c080e7          	jalr	1948(ra) # 0x80002988
    800071f4:	ce0a9ce3          	bnez	s5,0x80006eec
    800071f8:	fff00513          	li	a0,-1
    800071fc:	d09ff06f          	j	0x80006f04
    80007200:	df243c23          	sd	s2,-520(s0)
    80007204:	fe1ff06f          	j	0x800071e4
    80007208:	df243c23          	sd	s2,-520(s0)
    8000720c:	fd9ff06f          	j	0x800071e4
    80007210:	df243c23          	sd	s2,-520(s0)
    80007214:	fd1ff06f          	j	0x800071e4
    80007218:	df243c23          	sd	s2,-520(s0)
    8000721c:	fc9ff06f          	j	0x800071e4
    80007220:	df843c23          	sd	s8,-520(s0)
    80007224:	00000a93          	li	s5,0
    80007228:	fbdff06f          	j	0x800071e4
    8000722c:	df843c23          	sd	s8,-520(s0)
    80007230:	00000a93          	li	s5,0
    80007234:	fb1ff06f          	j	0x800071e4
    80007238:	df843c23          	sd	s8,-520(s0)
    8000723c:	00000a93          	li	s5,0
    80007240:	fa5ff06f          	j	0x800071e4
    80007244:	df843903          	ld	s2,-520(s0)
    80007248:	e0843783          	ld	a5,-504(s0)
    8000724c:	0017869b          	addiw	a3,a5,1
    80007250:	e0d43423          	sd	a3,-504(s0)
    80007254:	e0043783          	ld	a5,-512(s0)
    80007258:	0387879b          	addiw	a5,a5,56
    8000725c:	e8845703          	lhu	a4,-376(s0)
    80007260:	dae6d0e3          	bge	a3,a4,0x80007000
    80007264:	0007879b          	sext.w	a5,a5
    80007268:	e0f43023          	sd	a5,-512(s0)
    8000726c:	03800713          	li	a4,56
    80007270:	00078693          	mv	a3,a5
    80007274:	e1840613          	addi	a2,s0,-488
    80007278:	00000593          	li	a1,0
    8000727c:	000a8513          	mv	a0,s5
    80007280:	ffffe097          	auipc	ra,0xffffe
    80007284:	1e0080e7          	jalr	480(ra) # 0x80005460
    80007288:	03800793          	li	a5,56
    8000728c:	f4f51ae3          	bne	a0,a5,0x800071e0
    80007290:	e1842783          	lw	a5,-488(s0)
    80007294:	00100713          	li	a4,1
    80007298:	fae798e3          	bne	a5,a4,0x80007248
    8000729c:	e4043483          	ld	s1,-448(s0)
    800072a0:	e3843783          	ld	a5,-456(s0)
    800072a4:	f4f4eee3          	bltu	s1,a5,0x80007200
    800072a8:	e2843783          	ld	a5,-472(s0)
    800072ac:	00f484b3          	add	s1,s1,a5
    800072b0:	f4f4ece3          	bltu	s1,a5,0x80007208
    800072b4:	de043703          	ld	a4,-544(s0)
    800072b8:	00e7f7b3          	and	a5,a5,a4
    800072bc:	f4079ae3          	bnez	a5,0x80007210
    800072c0:	e1c42503          	lw	a0,-484(s0)
    800072c4:	00000097          	auipc	ra,0x0
    800072c8:	b4c080e7          	jalr	-1204(ra) # 0x80006e10
    800072cc:	00050693          	mv	a3,a0
    800072d0:	00048613          	mv	a2,s1
    800072d4:	00090593          	mv	a1,s2
    800072d8:	000b0513          	mv	a0,s6
    800072dc:	ffffb097          	auipc	ra,0xffffb
    800072e0:	9dc080e7          	jalr	-1572(ra) # 0x80001cb8
    800072e4:	dea43c23          	sd	a0,-520(s0)
    800072e8:	f20508e3          	beqz	a0,0x80007218
    800072ec:	e2843c03          	ld	s8,-472(s0)
    800072f0:	e2042c83          	lw	s9,-480(s0)
    800072f4:	e3842b83          	lw	s7,-456(s0)
    800072f8:	f40b86e3          	beqz	s7,0x80007244
    800072fc:	000b8993          	mv	s3,s7
    80007300:	00000493          	li	s1,0
    80007304:	cc9ff06f          	j	0x80006fcc
    80007308:	fd010113          	addi	sp,sp,-48
    8000730c:	02113423          	sd	ra,40(sp)
    80007310:	02813023          	sd	s0,32(sp)
    80007314:	00913c23          	sd	s1,24(sp)
    80007318:	01213823          	sd	s2,16(sp)
    8000731c:	03010413          	addi	s0,sp,48
    80007320:	00058913          	mv	s2,a1
    80007324:	00060493          	mv	s1,a2
    80007328:	fdc40593          	addi	a1,s0,-36
    8000732c:	ffffd097          	auipc	ra,0xffffd
    80007330:	c18080e7          	jalr	-1000(ra) # 0x80003f44
    80007334:	fdc42703          	lw	a4,-36(s0)
    80007338:	00f00793          	li	a5,15
    8000733c:	04e7e863          	bltu	a5,a4,0x8000738c
    80007340:	ffffb097          	auipc	ra,0xffffb
    80007344:	3b8080e7          	jalr	952(ra) # 0x800026f8
    80007348:	fdc42703          	lw	a4,-36(s0)
    8000734c:	01a70793          	addi	a5,a4,26 # 0xfffffffffffff01a
    80007350:	00379793          	slli	a5,a5,0x3
    80007354:	00f50533          	add	a0,a0,a5
    80007358:	00053783          	ld	a5,0(a0)
    8000735c:	02078c63          	beqz	a5,0x80007394
    80007360:	00090463          	beqz	s2,0x80007368
    80007364:	00e92023          	sw	a4,0(s2)
    80007368:	00000513          	li	a0,0
    8000736c:	00048463          	beqz	s1,0x80007374
    80007370:	00f4b023          	sd	a5,0(s1)
    80007374:	02813083          	ld	ra,40(sp)
    80007378:	02013403          	ld	s0,32(sp)
    8000737c:	01813483          	ld	s1,24(sp)
    80007380:	01013903          	ld	s2,16(sp)
    80007384:	03010113          	addi	sp,sp,48
    80007388:	00008067          	ret
    8000738c:	fff00513          	li	a0,-1
    80007390:	fe5ff06f          	j	0x80007374
    80007394:	fff00513          	li	a0,-1
    80007398:	fddff06f          	j	0x80007374
    8000739c:	fe010113          	addi	sp,sp,-32
    800073a0:	00113c23          	sd	ra,24(sp)
    800073a4:	00813823          	sd	s0,16(sp)
    800073a8:	00913423          	sd	s1,8(sp)
    800073ac:	02010413          	addi	s0,sp,32
    800073b0:	00050493          	mv	s1,a0
    800073b4:	ffffb097          	auipc	ra,0xffffb
    800073b8:	344080e7          	jalr	836(ra) # 0x800026f8
    800073bc:	00050613          	mv	a2,a0
    800073c0:	0d050793          	addi	a5,a0,208
    800073c4:	00000513          	li	a0,0
    800073c8:	01000693          	li	a3,16
    800073cc:	0007b703          	ld	a4,0(a5)
    800073d0:	02070463          	beqz	a4,0x800073f8
    800073d4:	0015051b          	addiw	a0,a0,1
    800073d8:	00878793          	addi	a5,a5,8
    800073dc:	fed518e3          	bne	a0,a3,0x800073cc
    800073e0:	fff00513          	li	a0,-1
    800073e4:	01813083          	ld	ra,24(sp)
    800073e8:	01013403          	ld	s0,16(sp)
    800073ec:	00813483          	ld	s1,8(sp)
    800073f0:	02010113          	addi	sp,sp,32
    800073f4:	00008067          	ret
    800073f8:	01a50793          	addi	a5,a0,26
    800073fc:	00379793          	slli	a5,a5,0x3
    80007400:	00f60633          	add	a2,a2,a5
    80007404:	00963023          	sd	s1,0(a2) # 0x2000
    80007408:	fddff06f          	j	0x800073e4
    8000740c:	fb010113          	addi	sp,sp,-80
    80007410:	04113423          	sd	ra,72(sp)
    80007414:	04813023          	sd	s0,64(sp)
    80007418:	02913c23          	sd	s1,56(sp)
    8000741c:	03213823          	sd	s2,48(sp)
    80007420:	03313423          	sd	s3,40(sp)
    80007424:	03413023          	sd	s4,32(sp)
    80007428:	01513c23          	sd	s5,24(sp)
    8000742c:	01613823          	sd	s6,16(sp)
    80007430:	05010413          	addi	s0,sp,80
    80007434:	00058b13          	mv	s6,a1
    80007438:	00060993          	mv	s3,a2
    8000743c:	00068913          	mv	s2,a3
    80007440:	fb040593          	addi	a1,s0,-80
    80007444:	ffffe097          	auipc	ra,0xffffe
    80007448:	780080e7          	jalr	1920(ra) # 0x80005bc4
    8000744c:	00050493          	mv	s1,a0
    80007450:	1c050063          	beqz	a0,0x80007610
    80007454:	ffffe097          	auipc	ra,0xffffe
    80007458:	a54080e7          	jalr	-1452(ra) # 0x80004ea8
    8000745c:	00000613          	li	a2,0
    80007460:	fb040593          	addi	a1,s0,-80
    80007464:	00048513          	mv	a0,s1
    80007468:	ffffe097          	auipc	ra,0xffffe
    8000746c:	330080e7          	jalr	816(ra) # 0x80005798
    80007470:	00050a93          	mv	s5,a0
    80007474:	08050063          	beqz	a0,0x800074f4
    80007478:	00048513          	mv	a0,s1
    8000747c:	ffffe097          	auipc	ra,0xffffe
    80007480:	d68080e7          	jalr	-664(ra) # 0x800051e4
    80007484:	000a8513          	mv	a0,s5
    80007488:	ffffe097          	auipc	ra,0xffffe
    8000748c:	a20080e7          	jalr	-1504(ra) # 0x80004ea8
    80007490:	000b059b          	sext.w	a1,s6
    80007494:	00200793          	li	a5,2
    80007498:	04f59463          	bne	a1,a5,0x800074e0
    8000749c:	044ad783          	lhu	a5,68(s5) # 0xfffffffffffff044
    800074a0:	ffe7879b          	addiw	a5,a5,-2
    800074a4:	03079793          	slli	a5,a5,0x30
    800074a8:	0307d793          	srli	a5,a5,0x30
    800074ac:	00100713          	li	a4,1
    800074b0:	02f76863          	bltu	a4,a5,0x800074e0
    800074b4:	000a8513          	mv	a0,s5
    800074b8:	04813083          	ld	ra,72(sp)
    800074bc:	04013403          	ld	s0,64(sp)
    800074c0:	03813483          	ld	s1,56(sp)
    800074c4:	03013903          	ld	s2,48(sp)
    800074c8:	02813983          	ld	s3,40(sp)
    800074cc:	02013a03          	ld	s4,32(sp)
    800074d0:	01813a83          	ld	s5,24(sp)
    800074d4:	01013b03          	ld	s6,16(sp)
    800074d8:	05010113          	addi	sp,sp,80
    800074dc:	00008067          	ret
    800074e0:	000a8513          	mv	a0,s5
    800074e4:	ffffe097          	auipc	ra,0xffffe
    800074e8:	d00080e7          	jalr	-768(ra) # 0x800051e4
    800074ec:	00000a93          	li	s5,0
    800074f0:	fc5ff06f          	j	0x800074b4
    800074f4:	000b0593          	mv	a1,s6
    800074f8:	0004a503          	lw	a0,0(s1)
    800074fc:	ffffd097          	auipc	ra,0xffffd
    80007500:	76c080e7          	jalr	1900(ra) # 0x80004c68
    80007504:	00050a13          	mv	s4,a0
    80007508:	04050e63          	beqz	a0,0x80007564
    8000750c:	ffffe097          	auipc	ra,0xffffe
    80007510:	99c080e7          	jalr	-1636(ra) # 0x80004ea8
    80007514:	053a1323          	sh	s3,70(s4)
    80007518:	052a1423          	sh	s2,72(s4)
    8000751c:	00100913          	li	s2,1
    80007520:	052a1523          	sh	s2,74(s4)
    80007524:	000a0513          	mv	a0,s4
    80007528:	ffffe097          	auipc	ra,0xffffe
    8000752c:	864080e7          	jalr	-1948(ra) # 0x80004d8c
    80007530:	000b059b          	sext.w	a1,s6
    80007534:	05258263          	beq	a1,s2,0x80007578
    80007538:	004a2603          	lw	a2,4(s4)
    8000753c:	fb040593          	addi	a1,s0,-80
    80007540:	00048513          	mv	a0,s1
    80007544:	ffffe097          	auipc	ra,0xffffe
    80007548:	550080e7          	jalr	1360(ra) # 0x80005a94
    8000754c:	08054c63          	bltz	a0,0x800075e4
    80007550:	00048513          	mv	a0,s1
    80007554:	ffffe097          	auipc	ra,0xffffe
    80007558:	c90080e7          	jalr	-880(ra) # 0x800051e4
    8000755c:	000a0a93          	mv	s5,s4
    80007560:	f55ff06f          	j	0x800074b4
    80007564:	00048513          	mv	a0,s1
    80007568:	ffffe097          	auipc	ra,0xffffe
    8000756c:	c7c080e7          	jalr	-900(ra) # 0x800051e4
    80007570:	000a0a93          	mv	s5,s4
    80007574:	f41ff06f          	j	0x800074b4
    80007578:	004a2603          	lw	a2,4(s4)
    8000757c:	00003597          	auipc	a1,0x3
    80007580:	2b458593          	addi	a1,a1,692 # 0x8000a830
    80007584:	000a0513          	mv	a0,s4
    80007588:	ffffe097          	auipc	ra,0xffffe
    8000758c:	50c080e7          	jalr	1292(ra) # 0x80005a94
    80007590:	04054a63          	bltz	a0,0x800075e4
    80007594:	0044a603          	lw	a2,4(s1)
    80007598:	00003597          	auipc	a1,0x3
    8000759c:	2a058593          	addi	a1,a1,672 # 0x8000a838
    800075a0:	000a0513          	mv	a0,s4
    800075a4:	ffffe097          	auipc	ra,0xffffe
    800075a8:	4f0080e7          	jalr	1264(ra) # 0x80005a94
    800075ac:	02054c63          	bltz	a0,0x800075e4
    800075b0:	004a2603          	lw	a2,4(s4)
    800075b4:	fb040593          	addi	a1,s0,-80
    800075b8:	00048513          	mv	a0,s1
    800075bc:	ffffe097          	auipc	ra,0xffffe
    800075c0:	4d8080e7          	jalr	1240(ra) # 0x80005a94
    800075c4:	02054063          	bltz	a0,0x800075e4
    800075c8:	04a4d783          	lhu	a5,74(s1)
    800075cc:	0017879b          	addiw	a5,a5,1
    800075d0:	04f49523          	sh	a5,74(s1)
    800075d4:	00048513          	mv	a0,s1
    800075d8:	ffffd097          	auipc	ra,0xffffd
    800075dc:	7b4080e7          	jalr	1972(ra) # 0x80004d8c
    800075e0:	f71ff06f          	j	0x80007550
    800075e4:	040a1523          	sh	zero,74(s4)
    800075e8:	000a0513          	mv	a0,s4
    800075ec:	ffffd097          	auipc	ra,0xffffd
    800075f0:	7a0080e7          	jalr	1952(ra) # 0x80004d8c
    800075f4:	000a0513          	mv	a0,s4
    800075f8:	ffffe097          	auipc	ra,0xffffe
    800075fc:	bec080e7          	jalr	-1044(ra) # 0x800051e4
    80007600:	00048513          	mv	a0,s1
    80007604:	ffffe097          	auipc	ra,0xffffe
    80007608:	be0080e7          	jalr	-1056(ra) # 0x800051e4
    8000760c:	ea9ff06f          	j	0x800074b4
    80007610:	00050a93          	mv	s5,a0
    80007614:	ea1ff06f          	j	0x800074b4
    80007618:	fd010113          	addi	sp,sp,-48
    8000761c:	02113423          	sd	ra,40(sp)
    80007620:	02813023          	sd	s0,32(sp)
    80007624:	00913c23          	sd	s1,24(sp)
    80007628:	01213823          	sd	s2,16(sp)
    8000762c:	03010413          	addi	s0,sp,48
    80007630:	fd840613          	addi	a2,s0,-40
    80007634:	00000593          	li	a1,0
    80007638:	00000513          	li	a0,0
    8000763c:	00000097          	auipc	ra,0x0
    80007640:	ccc080e7          	jalr	-820(ra) # 0x80007308
    80007644:	fff00793          	li	a5,-1
    80007648:	02054863          	bltz	a0,0x80007678
    8000764c:	fd843903          	ld	s2,-40(s0)
    80007650:	00090513          	mv	a0,s2
    80007654:	00000097          	auipc	ra,0x0
    80007658:	d48080e7          	jalr	-696(ra) # 0x8000739c
    8000765c:	00050493          	mv	s1,a0
    80007660:	fff00793          	li	a5,-1
    80007664:	00054a63          	bltz	a0,0x80007678
    80007668:	00090513          	mv	a0,s2
    8000766c:	fffff097          	auipc	ra,0xfffff
    80007670:	e48080e7          	jalr	-440(ra) # 0x800064b4
    80007674:	00048793          	mv	a5,s1
    80007678:	00078513          	mv	a0,a5
    8000767c:	02813083          	ld	ra,40(sp)
    80007680:	02013403          	ld	s0,32(sp)
    80007684:	01813483          	ld	s1,24(sp)
    80007688:	01013903          	ld	s2,16(sp)
    8000768c:	03010113          	addi	sp,sp,48
    80007690:	00008067          	ret
    80007694:	fd010113          	addi	sp,sp,-48
    80007698:	02113423          	sd	ra,40(sp)
    8000769c:	02813023          	sd	s0,32(sp)
    800076a0:	03010413          	addi	s0,sp,48
    800076a4:	fd840593          	addi	a1,s0,-40
    800076a8:	00100513          	li	a0,1
    800076ac:	ffffd097          	auipc	ra,0xffffd
    800076b0:	8d0080e7          	jalr	-1840(ra) # 0x80003f7c
    800076b4:	fe440593          	addi	a1,s0,-28
    800076b8:	00200513          	li	a0,2
    800076bc:	ffffd097          	auipc	ra,0xffffd
    800076c0:	888080e7          	jalr	-1912(ra) # 0x80003f44
    800076c4:	fe840613          	addi	a2,s0,-24
    800076c8:	00000593          	li	a1,0
    800076cc:	00000513          	li	a0,0
    800076d0:	00000097          	auipc	ra,0x0
    800076d4:	c38080e7          	jalr	-968(ra) # 0x80007308
    800076d8:	00050793          	mv	a5,a0
    800076dc:	fff00513          	li	a0,-1
    800076e0:	0007cc63          	bltz	a5,0x800076f8
    800076e4:	fe442603          	lw	a2,-28(s0)
    800076e8:	fd843583          	ld	a1,-40(s0)
    800076ec:	fe843503          	ld	a0,-24(s0)
    800076f0:	fffff097          	auipc	ra,0xfffff
    800076f4:	fe0080e7          	jalr	-32(ra) # 0x800066d0
    800076f8:	02813083          	ld	ra,40(sp)
    800076fc:	02013403          	ld	s0,32(sp)
    80007700:	03010113          	addi	sp,sp,48
    80007704:	00008067          	ret
    80007708:	fd010113          	addi	sp,sp,-48
    8000770c:	02113423          	sd	ra,40(sp)
    80007710:	02813023          	sd	s0,32(sp)
    80007714:	03010413          	addi	s0,sp,48
    80007718:	fd840593          	addi	a1,s0,-40
    8000771c:	00100513          	li	a0,1
    80007720:	ffffd097          	auipc	ra,0xffffd
    80007724:	85c080e7          	jalr	-1956(ra) # 0x80003f7c
    80007728:	fe440593          	addi	a1,s0,-28
    8000772c:	00200513          	li	a0,2
    80007730:	ffffd097          	auipc	ra,0xffffd
    80007734:	814080e7          	jalr	-2028(ra) # 0x80003f44
    80007738:	fe840613          	addi	a2,s0,-24
    8000773c:	00000593          	li	a1,0
    80007740:	00000513          	li	a0,0
    80007744:	00000097          	auipc	ra,0x0
    80007748:	bc4080e7          	jalr	-1084(ra) # 0x80007308
    8000774c:	00050793          	mv	a5,a0
    80007750:	fff00513          	li	a0,-1
    80007754:	0007cc63          	bltz	a5,0x8000776c
    80007758:	fe442603          	lw	a2,-28(s0)
    8000775c:	fd843583          	ld	a1,-40(s0)
    80007760:	fe843503          	ld	a0,-24(s0)
    80007764:	fffff097          	auipc	ra,0xfffff
    80007768:	098080e7          	jalr	152(ra) # 0x800067fc
    8000776c:	02813083          	ld	ra,40(sp)
    80007770:	02013403          	ld	s0,32(sp)
    80007774:	03010113          	addi	sp,sp,48
    80007778:	00008067          	ret
    8000777c:	fe010113          	addi	sp,sp,-32
    80007780:	00113c23          	sd	ra,24(sp)
    80007784:	00813823          	sd	s0,16(sp)
    80007788:	02010413          	addi	s0,sp,32
    8000778c:	fe040613          	addi	a2,s0,-32
    80007790:	fec40593          	addi	a1,s0,-20
    80007794:	00000513          	li	a0,0
    80007798:	00000097          	auipc	ra,0x0
    8000779c:	b70080e7          	jalr	-1168(ra) # 0x80007308
    800077a0:	fff00793          	li	a5,-1
    800077a4:	02054863          	bltz	a0,0x800077d4
    800077a8:	ffffb097          	auipc	ra,0xffffb
    800077ac:	f50080e7          	jalr	-176(ra) # 0x800026f8
    800077b0:	fec42783          	lw	a5,-20(s0)
    800077b4:	01a78793          	addi	a5,a5,26
    800077b8:	00379793          	slli	a5,a5,0x3
    800077bc:	00f50533          	add	a0,a0,a5
    800077c0:	00053023          	sd	zero,0(a0)
    800077c4:	fe043503          	ld	a0,-32(s0)
    800077c8:	fffff097          	auipc	ra,0xfffff
    800077cc:	d5c080e7          	jalr	-676(ra) # 0x80006524
    800077d0:	00000793          	li	a5,0
    800077d4:	00078513          	mv	a0,a5
    800077d8:	01813083          	ld	ra,24(sp)
    800077dc:	01013403          	ld	s0,16(sp)
    800077e0:	02010113          	addi	sp,sp,32
    800077e4:	00008067          	ret
    800077e8:	fe010113          	addi	sp,sp,-32
    800077ec:	00113c23          	sd	ra,24(sp)
    800077f0:	00813823          	sd	s0,16(sp)
    800077f4:	02010413          	addi	s0,sp,32
    800077f8:	fe040593          	addi	a1,s0,-32
    800077fc:	00100513          	li	a0,1
    80007800:	ffffc097          	auipc	ra,0xffffc
    80007804:	77c080e7          	jalr	1916(ra) # 0x80003f7c
    80007808:	fe840613          	addi	a2,s0,-24
    8000780c:	00000593          	li	a1,0
    80007810:	00000513          	li	a0,0
    80007814:	00000097          	auipc	ra,0x0
    80007818:	af4080e7          	jalr	-1292(ra) # 0x80007308
    8000781c:	00050793          	mv	a5,a0
    80007820:	fff00513          	li	a0,-1
    80007824:	0007ca63          	bltz	a5,0x80007838
    80007828:	fe043583          	ld	a1,-32(s0)
    8000782c:	fe843503          	ld	a0,-24(s0)
    80007830:	fffff097          	auipc	ra,0xfffff
    80007834:	df8080e7          	jalr	-520(ra) # 0x80006628
    80007838:	01813083          	ld	ra,24(sp)
    8000783c:	01013403          	ld	s0,16(sp)
    80007840:	02010113          	addi	sp,sp,32
    80007844:	00008067          	ret
    80007848:	ed010113          	addi	sp,sp,-304
    8000784c:	12113423          	sd	ra,296(sp)
    80007850:	12813023          	sd	s0,288(sp)
    80007854:	10913c23          	sd	s1,280(sp)
    80007858:	11213823          	sd	s2,272(sp)
    8000785c:	13010413          	addi	s0,sp,304
    80007860:	08000613          	li	a2,128
    80007864:	ed040593          	addi	a1,s0,-304
    80007868:	00000513          	li	a0,0
    8000786c:	ffffc097          	auipc	ra,0xffffc
    80007870:	748080e7          	jalr	1864(ra) # 0x80003fb4
    80007874:	fff00793          	li	a5,-1
    80007878:	14054a63          	bltz	a0,0x800079cc
    8000787c:	08000613          	li	a2,128
    80007880:	f5040593          	addi	a1,s0,-176
    80007884:	00100513          	li	a0,1
    80007888:	ffffc097          	auipc	ra,0xffffc
    8000788c:	72c080e7          	jalr	1836(ra) # 0x80003fb4
    80007890:	fff00793          	li	a5,-1
    80007894:	12054c63          	bltz	a0,0x800079cc
    80007898:	ffffe097          	auipc	ra,0xffffe
    8000789c:	610080e7          	jalr	1552(ra) # 0x80005ea8
    800078a0:	ed040513          	addi	a0,s0,-304
    800078a4:	ffffe097          	auipc	ra,0xffffe
    800078a8:	2f0080e7          	jalr	752(ra) # 0x80005b94
    800078ac:	00050493          	mv	s1,a0
    800078b0:	0a050463          	beqz	a0,0x80007958
    800078b4:	ffffd097          	auipc	ra,0xffffd
    800078b8:	5f4080e7          	jalr	1524(ra) # 0x80004ea8
    800078bc:	04449703          	lh	a4,68(s1)
    800078c0:	00100793          	li	a5,1
    800078c4:	0af70263          	beq	a4,a5,0x80007968
    800078c8:	04a4d783          	lhu	a5,74(s1)
    800078cc:	0017879b          	addiw	a5,a5,1
    800078d0:	04f49523          	sh	a5,74(s1)
    800078d4:	00048513          	mv	a0,s1
    800078d8:	ffffd097          	auipc	ra,0xffffd
    800078dc:	4b4080e7          	jalr	1204(ra) # 0x80004d8c
    800078e0:	00048513          	mv	a0,s1
    800078e4:	ffffd097          	auipc	ra,0xffffd
    800078e8:	6c8080e7          	jalr	1736(ra) # 0x80004fac
    800078ec:	fd040593          	addi	a1,s0,-48
    800078f0:	f5040513          	addi	a0,s0,-176
    800078f4:	ffffe097          	auipc	ra,0xffffe
    800078f8:	2d0080e7          	jalr	720(ra) # 0x80005bc4
    800078fc:	00050913          	mv	s2,a0
    80007900:	08050863          	beqz	a0,0x80007990
    80007904:	ffffd097          	auipc	ra,0xffffd
    80007908:	5a4080e7          	jalr	1444(ra) # 0x80004ea8
    8000790c:	00092703          	lw	a4,0(s2)
    80007910:	0004a783          	lw	a5,0(s1)
    80007914:	06f71863          	bne	a4,a5,0x80007984
    80007918:	0044a603          	lw	a2,4(s1)
    8000791c:	fd040593          	addi	a1,s0,-48
    80007920:	00090513          	mv	a0,s2
    80007924:	ffffe097          	auipc	ra,0xffffe
    80007928:	170080e7          	jalr	368(ra) # 0x80005a94
    8000792c:	04054c63          	bltz	a0,0x80007984
    80007930:	00090513          	mv	a0,s2
    80007934:	ffffe097          	auipc	ra,0xffffe
    80007938:	8b0080e7          	jalr	-1872(ra) # 0x800051e4
    8000793c:	00048513          	mv	a0,s1
    80007940:	ffffd097          	auipc	ra,0xffffd
    80007944:	7c8080e7          	jalr	1992(ra) # 0x80005108
    80007948:	ffffe097          	auipc	ra,0xffffe
    8000794c:	614080e7          	jalr	1556(ra) # 0x80005f5c
    80007950:	00000793          	li	a5,0
    80007954:	0780006f          	j	0x800079cc
    80007958:	ffffe097          	auipc	ra,0xffffe
    8000795c:	604080e7          	jalr	1540(ra) # 0x80005f5c
    80007960:	fff00793          	li	a5,-1
    80007964:	0680006f          	j	0x800079cc
    80007968:	00048513          	mv	a0,s1
    8000796c:	ffffe097          	auipc	ra,0xffffe
    80007970:	878080e7          	jalr	-1928(ra) # 0x800051e4
    80007974:	ffffe097          	auipc	ra,0xffffe
    80007978:	5e8080e7          	jalr	1512(ra) # 0x80005f5c
    8000797c:	fff00793          	li	a5,-1
    80007980:	04c0006f          	j	0x800079cc
    80007984:	00090513          	mv	a0,s2
    80007988:	ffffe097          	auipc	ra,0xffffe
    8000798c:	85c080e7          	jalr	-1956(ra) # 0x800051e4
    80007990:	00048513          	mv	a0,s1
    80007994:	ffffd097          	auipc	ra,0xffffd
    80007998:	514080e7          	jalr	1300(ra) # 0x80004ea8
    8000799c:	04a4d783          	lhu	a5,74(s1)
    800079a0:	fff7879b          	addiw	a5,a5,-1
    800079a4:	04f49523          	sh	a5,74(s1)
    800079a8:	00048513          	mv	a0,s1
    800079ac:	ffffd097          	auipc	ra,0xffffd
    800079b0:	3e0080e7          	jalr	992(ra) # 0x80004d8c
    800079b4:	00048513          	mv	a0,s1
    800079b8:	ffffe097          	auipc	ra,0xffffe
    800079bc:	82c080e7          	jalr	-2004(ra) # 0x800051e4
    800079c0:	ffffe097          	auipc	ra,0xffffe
    800079c4:	59c080e7          	jalr	1436(ra) # 0x80005f5c
    800079c8:	fff00793          	li	a5,-1
    800079cc:	00078513          	mv	a0,a5
    800079d0:	12813083          	ld	ra,296(sp)
    800079d4:	12013403          	ld	s0,288(sp)
    800079d8:	11813483          	ld	s1,280(sp)
    800079dc:	11013903          	ld	s2,272(sp)
    800079e0:	13010113          	addi	sp,sp,304
    800079e4:	00008067          	ret
    800079e8:	f1010113          	addi	sp,sp,-240
    800079ec:	0e113423          	sd	ra,232(sp)
    800079f0:	0e813023          	sd	s0,224(sp)
    800079f4:	0c913c23          	sd	s1,216(sp)
    800079f8:	0d213823          	sd	s2,208(sp)
    800079fc:	0d313423          	sd	s3,200(sp)
    80007a00:	0f010413          	addi	s0,sp,240
    80007a04:	08000613          	li	a2,128
    80007a08:	f3040593          	addi	a1,s0,-208
    80007a0c:	00000513          	li	a0,0
    80007a10:	ffffc097          	auipc	ra,0xffffc
    80007a14:	5a4080e7          	jalr	1444(ra) # 0x80003fb4
    80007a18:	1c054063          	bltz	a0,0x80007bd8
    80007a1c:	ffffe097          	auipc	ra,0xffffe
    80007a20:	48c080e7          	jalr	1164(ra) # 0x80005ea8
    80007a24:	fb040593          	addi	a1,s0,-80
    80007a28:	f3040513          	addi	a0,s0,-208
    80007a2c:	ffffe097          	auipc	ra,0xffffe
    80007a30:	198080e7          	jalr	408(ra) # 0x80005bc4
    80007a34:	00050493          	mv	s1,a0
    80007a38:	0e050c63          	beqz	a0,0x80007b30
    80007a3c:	ffffd097          	auipc	ra,0xffffd
    80007a40:	46c080e7          	jalr	1132(ra) # 0x80004ea8
    80007a44:	00003597          	auipc	a1,0x3
    80007a48:	dec58593          	addi	a1,a1,-532 # 0x8000a830
    80007a4c:	fb040513          	addi	a0,s0,-80
    80007a50:	ffffe097          	auipc	ra,0xffffe
    80007a54:	d1c080e7          	jalr	-740(ra) # 0x8000576c
    80007a58:	18050a63          	beqz	a0,0x80007bec
    80007a5c:	00003597          	auipc	a1,0x3
    80007a60:	ddc58593          	addi	a1,a1,-548 # 0x8000a838
    80007a64:	fb040513          	addi	a0,s0,-80
    80007a68:	ffffe097          	auipc	ra,0xffffe
    80007a6c:	d04080e7          	jalr	-764(ra) # 0x8000576c
    80007a70:	16050e63          	beqz	a0,0x80007bec
    80007a74:	f2c40613          	addi	a2,s0,-212
    80007a78:	fb040593          	addi	a1,s0,-80
    80007a7c:	00048513          	mv	a0,s1
    80007a80:	ffffe097          	auipc	ra,0xffffe
    80007a84:	d18080e7          	jalr	-744(ra) # 0x80005798
    80007a88:	00050913          	mv	s2,a0
    80007a8c:	16050063          	beqz	a0,0x80007bec
    80007a90:	ffffd097          	auipc	ra,0xffffd
    80007a94:	418080e7          	jalr	1048(ra) # 0x80004ea8
    80007a98:	04a91783          	lh	a5,74(s2)
    80007a9c:	0af05263          	blez	a5,0x80007b40
    80007aa0:	04491703          	lh	a4,68(s2)
    80007aa4:	00100793          	li	a5,1
    80007aa8:	0af70463          	beq	a4,a5,0x80007b50
    80007aac:	01000613          	li	a2,16
    80007ab0:	00000593          	li	a1,0
    80007ab4:	fc040513          	addi	a0,s0,-64
    80007ab8:	ffff9097          	auipc	ra,0xffff9
    80007abc:	738080e7          	jalr	1848(ra) # 0x800011f0
    80007ac0:	01000713          	li	a4,16
    80007ac4:	f2c42683          	lw	a3,-212(s0)
    80007ac8:	fc040613          	addi	a2,s0,-64
    80007acc:	00000593          	li	a1,0
    80007ad0:	00048513          	mv	a0,s1
    80007ad4:	ffffe097          	auipc	ra,0xffffe
    80007ad8:	afc080e7          	jalr	-1284(ra) # 0x800055d0
    80007adc:	01000793          	li	a5,16
    80007ae0:	0cf51663          	bne	a0,a5,0x80007bac
    80007ae4:	04491703          	lh	a4,68(s2)
    80007ae8:	00100793          	li	a5,1
    80007aec:	0cf70863          	beq	a4,a5,0x80007bbc
    80007af0:	00048513          	mv	a0,s1
    80007af4:	ffffd097          	auipc	ra,0xffffd
    80007af8:	6f0080e7          	jalr	1776(ra) # 0x800051e4
    80007afc:	04a95783          	lhu	a5,74(s2)
    80007b00:	fff7879b          	addiw	a5,a5,-1
    80007b04:	04f91523          	sh	a5,74(s2)
    80007b08:	00090513          	mv	a0,s2
    80007b0c:	ffffd097          	auipc	ra,0xffffd
    80007b10:	280080e7          	jalr	640(ra) # 0x80004d8c
    80007b14:	00090513          	mv	a0,s2
    80007b18:	ffffd097          	auipc	ra,0xffffd
    80007b1c:	6cc080e7          	jalr	1740(ra) # 0x800051e4
    80007b20:	ffffe097          	auipc	ra,0xffffe
    80007b24:	43c080e7          	jalr	1084(ra) # 0x80005f5c
    80007b28:	00000513          	li	a0,0
    80007b2c:	0d80006f          	j	0x80007c04
    80007b30:	ffffe097          	auipc	ra,0xffffe
    80007b34:	42c080e7          	jalr	1068(ra) # 0x80005f5c
    80007b38:	fff00513          	li	a0,-1
    80007b3c:	0c80006f          	j	0x80007c04
    80007b40:	00003517          	auipc	a0,0x3
    80007b44:	d0050513          	addi	a0,a0,-768 # 0x8000a840
    80007b48:	ffff9097          	auipc	ra,0xffff9
    80007b4c:	f38080e7          	jalr	-200(ra) # 0x80000a80
    80007b50:	04c92703          	lw	a4,76(s2)
    80007b54:	02000793          	li	a5,32
    80007b58:	f4e7fae3          	bgeu	a5,a4,0x80007aac
    80007b5c:	02000993          	li	s3,32
    80007b60:	01000713          	li	a4,16
    80007b64:	00098693          	mv	a3,s3
    80007b68:	f1840613          	addi	a2,s0,-232
    80007b6c:	00000593          	li	a1,0
    80007b70:	00090513          	mv	a0,s2
    80007b74:	ffffe097          	auipc	ra,0xffffe
    80007b78:	8ec080e7          	jalr	-1812(ra) # 0x80005460
    80007b7c:	01000793          	li	a5,16
    80007b80:	00f51e63          	bne	a0,a5,0x80007b9c
    80007b84:	f1845783          	lhu	a5,-232(s0)
    80007b88:	04079c63          	bnez	a5,0x80007be0
    80007b8c:	0109899b          	addiw	s3,s3,16
    80007b90:	04c92783          	lw	a5,76(s2)
    80007b94:	fcf9e6e3          	bltu	s3,a5,0x80007b60
    80007b98:	f15ff06f          	j	0x80007aac
    80007b9c:	00003517          	auipc	a0,0x3
    80007ba0:	cbc50513          	addi	a0,a0,-836 # 0x8000a858
    80007ba4:	ffff9097          	auipc	ra,0xffff9
    80007ba8:	edc080e7          	jalr	-292(ra) # 0x80000a80
    80007bac:	00003517          	auipc	a0,0x3
    80007bb0:	cc450513          	addi	a0,a0,-828 # 0x8000a870
    80007bb4:	ffff9097          	auipc	ra,0xffff9
    80007bb8:	ecc080e7          	jalr	-308(ra) # 0x80000a80
    80007bbc:	04a4d783          	lhu	a5,74(s1)
    80007bc0:	fff7879b          	addiw	a5,a5,-1
    80007bc4:	04f49523          	sh	a5,74(s1)
    80007bc8:	00048513          	mv	a0,s1
    80007bcc:	ffffd097          	auipc	ra,0xffffd
    80007bd0:	1c0080e7          	jalr	448(ra) # 0x80004d8c
    80007bd4:	f1dff06f          	j	0x80007af0
    80007bd8:	fff00513          	li	a0,-1
    80007bdc:	0280006f          	j	0x80007c04
    80007be0:	00090513          	mv	a0,s2
    80007be4:	ffffd097          	auipc	ra,0xffffd
    80007be8:	600080e7          	jalr	1536(ra) # 0x800051e4
    80007bec:	00048513          	mv	a0,s1
    80007bf0:	ffffd097          	auipc	ra,0xffffd
    80007bf4:	5f4080e7          	jalr	1524(ra) # 0x800051e4
    80007bf8:	ffffe097          	auipc	ra,0xffffe
    80007bfc:	364080e7          	jalr	868(ra) # 0x80005f5c
    80007c00:	fff00513          	li	a0,-1
    80007c04:	0e813083          	ld	ra,232(sp)
    80007c08:	0e013403          	ld	s0,224(sp)
    80007c0c:	0d813483          	ld	s1,216(sp)
    80007c10:	0d013903          	ld	s2,208(sp)
    80007c14:	0c813983          	ld	s3,200(sp)
    80007c18:	0f010113          	addi	sp,sp,240
    80007c1c:	00008067          	ret
    80007c20:	f4010113          	addi	sp,sp,-192
    80007c24:	0a113c23          	sd	ra,184(sp)
    80007c28:	0a813823          	sd	s0,176(sp)
    80007c2c:	0a913423          	sd	s1,168(sp)
    80007c30:	0b213023          	sd	s2,160(sp)
    80007c34:	09313c23          	sd	s3,152(sp)
    80007c38:	0c010413          	addi	s0,sp,192
    80007c3c:	f4c40593          	addi	a1,s0,-180
    80007c40:	00100513          	li	a0,1
    80007c44:	ffffc097          	auipc	ra,0xffffc
    80007c48:	300080e7          	jalr	768(ra) # 0x80003f44
    80007c4c:	08000613          	li	a2,128
    80007c50:	f5040593          	addi	a1,s0,-176
    80007c54:	00000513          	li	a0,0
    80007c58:	ffffc097          	auipc	ra,0xffffc
    80007c5c:	35c080e7          	jalr	860(ra) # 0x80003fb4
    80007c60:	00050793          	mv	a5,a0
    80007c64:	fff00513          	li	a0,-1
    80007c68:	0c07ca63          	bltz	a5,0x80007d3c
    80007c6c:	ffffe097          	auipc	ra,0xffffe
    80007c70:	23c080e7          	jalr	572(ra) # 0x80005ea8
    80007c74:	f4c42783          	lw	a5,-180(s0)
    80007c78:	2007f793          	andi	a5,a5,512
    80007c7c:	0e078663          	beqz	a5,0x80007d68
    80007c80:	00000693          	li	a3,0
    80007c84:	00000613          	li	a2,0
    80007c88:	00200593          	li	a1,2
    80007c8c:	f5040513          	addi	a0,s0,-176
    80007c90:	fffff097          	auipc	ra,0xfffff
    80007c94:	77c080e7          	jalr	1916(ra) # 0x8000740c
    80007c98:	00050493          	mv	s1,a0
    80007c9c:	0a050e63          	beqz	a0,0x80007d58
    80007ca0:	04449703          	lh	a4,68(s1)
    80007ca4:	00300793          	li	a5,3
    80007ca8:	00f71863          	bne	a4,a5,0x80007cb8
    80007cac:	0464d703          	lhu	a4,70(s1)
    80007cb0:	00900793          	li	a5,9
    80007cb4:	10e7e863          	bltu	a5,a4,0x80007dc4
    80007cb8:	ffffe097          	auipc	ra,0xffffe
    80007cbc:	770080e7          	jalr	1904(ra) # 0x80006428
    80007cc0:	00050993          	mv	s3,a0
    80007cc4:	14050463          	beqz	a0,0x80007e0c
    80007cc8:	fffff097          	auipc	ra,0xfffff
    80007ccc:	6d4080e7          	jalr	1748(ra) # 0x8000739c
    80007cd0:	00050913          	mv	s2,a0
    80007cd4:	12054663          	bltz	a0,0x80007e00
    80007cd8:	04449703          	lh	a4,68(s1)
    80007cdc:	00300793          	li	a5,3
    80007ce0:	10f70063          	beq	a4,a5,0x80007de0
    80007ce4:	00200793          	li	a5,2
    80007ce8:	00f9a023          	sw	a5,0(s3)
    80007cec:	0209a023          	sw	zero,32(s3)
    80007cf0:	0099bc23          	sd	s1,24(s3)
    80007cf4:	f4c42783          	lw	a5,-180(s0)
    80007cf8:	0017c713          	xori	a4,a5,1
    80007cfc:	00177713          	andi	a4,a4,1
    80007d00:	00e98423          	sb	a4,8(s3)
    80007d04:	0037f713          	andi	a4,a5,3
    80007d08:	00e03733          	snez	a4,a4
    80007d0c:	00e984a3          	sb	a4,9(s3)
    80007d10:	4007f793          	andi	a5,a5,1024
    80007d14:	00078863          	beqz	a5,0x80007d24
    80007d18:	04449703          	lh	a4,68(s1)
    80007d1c:	00200793          	li	a5,2
    80007d20:	0cf70863          	beq	a4,a5,0x80007df0
    80007d24:	00048513          	mv	a0,s1
    80007d28:	ffffd097          	auipc	ra,0xffffd
    80007d2c:	284080e7          	jalr	644(ra) # 0x80004fac
    80007d30:	ffffe097          	auipc	ra,0xffffe
    80007d34:	22c080e7          	jalr	556(ra) # 0x80005f5c
    80007d38:	00090513          	mv	a0,s2
    80007d3c:	0b813083          	ld	ra,184(sp)
    80007d40:	0b013403          	ld	s0,176(sp)
    80007d44:	0a813483          	ld	s1,168(sp)
    80007d48:	0a013903          	ld	s2,160(sp)
    80007d4c:	09813983          	ld	s3,152(sp)
    80007d50:	0c010113          	addi	sp,sp,192
    80007d54:	00008067          	ret
    80007d58:	ffffe097          	auipc	ra,0xffffe
    80007d5c:	204080e7          	jalr	516(ra) # 0x80005f5c
    80007d60:	fff00513          	li	a0,-1
    80007d64:	fd9ff06f          	j	0x80007d3c
    80007d68:	f5040513          	addi	a0,s0,-176
    80007d6c:	ffffe097          	auipc	ra,0xffffe
    80007d70:	e28080e7          	jalr	-472(ra) # 0x80005b94
    80007d74:	00050493          	mv	s1,a0
    80007d78:	02050e63          	beqz	a0,0x80007db4
    80007d7c:	ffffd097          	auipc	ra,0xffffd
    80007d80:	12c080e7          	jalr	300(ra) # 0x80004ea8
    80007d84:	04449703          	lh	a4,68(s1)
    80007d88:	00100793          	li	a5,1
    80007d8c:	f0f71ae3          	bne	a4,a5,0x80007ca0
    80007d90:	f4c42783          	lw	a5,-180(s0)
    80007d94:	f20782e3          	beqz	a5,0x80007cb8
    80007d98:	00048513          	mv	a0,s1
    80007d9c:	ffffd097          	auipc	ra,0xffffd
    80007da0:	448080e7          	jalr	1096(ra) # 0x800051e4
    80007da4:	ffffe097          	auipc	ra,0xffffe
    80007da8:	1b8080e7          	jalr	440(ra) # 0x80005f5c
    80007dac:	fff00513          	li	a0,-1
    80007db0:	f8dff06f          	j	0x80007d3c
    80007db4:	ffffe097          	auipc	ra,0xffffe
    80007db8:	1a8080e7          	jalr	424(ra) # 0x80005f5c
    80007dbc:	fff00513          	li	a0,-1
    80007dc0:	f7dff06f          	j	0x80007d3c
    80007dc4:	00048513          	mv	a0,s1
    80007dc8:	ffffd097          	auipc	ra,0xffffd
    80007dcc:	41c080e7          	jalr	1052(ra) # 0x800051e4
    80007dd0:	ffffe097          	auipc	ra,0xffffe
    80007dd4:	18c080e7          	jalr	396(ra) # 0x80005f5c
    80007dd8:	fff00513          	li	a0,-1
    80007ddc:	f61ff06f          	j	0x80007d3c
    80007de0:	00f9a023          	sw	a5,0(s3)
    80007de4:	04649783          	lh	a5,70(s1)
    80007de8:	02f99223          	sh	a5,36(s3)
    80007dec:	f05ff06f          	j	0x80007cf0
    80007df0:	00048513          	mv	a0,s1
    80007df4:	ffffd097          	auipc	ra,0xffffd
    80007df8:	228080e7          	jalr	552(ra) # 0x8000501c
    80007dfc:	f29ff06f          	j	0x80007d24
    80007e00:	00098513          	mv	a0,s3
    80007e04:	ffffe097          	auipc	ra,0xffffe
    80007e08:	720080e7          	jalr	1824(ra) # 0x80006524
    80007e0c:	00048513          	mv	a0,s1
    80007e10:	ffffd097          	auipc	ra,0xffffd
    80007e14:	3d4080e7          	jalr	980(ra) # 0x800051e4
    80007e18:	ffffe097          	auipc	ra,0xffffe
    80007e1c:	144080e7          	jalr	324(ra) # 0x80005f5c
    80007e20:	fff00513          	li	a0,-1
    80007e24:	f19ff06f          	j	0x80007d3c
    80007e28:	f7010113          	addi	sp,sp,-144
    80007e2c:	08113423          	sd	ra,136(sp)
    80007e30:	08813023          	sd	s0,128(sp)
    80007e34:	09010413          	addi	s0,sp,144
    80007e38:	ffffe097          	auipc	ra,0xffffe
    80007e3c:	070080e7          	jalr	112(ra) # 0x80005ea8
    80007e40:	08000613          	li	a2,128
    80007e44:	f7040593          	addi	a1,s0,-144
    80007e48:	00000513          	li	a0,0
    80007e4c:	ffffc097          	auipc	ra,0xffffc
    80007e50:	168080e7          	jalr	360(ra) # 0x80003fb4
    80007e54:	04054263          	bltz	a0,0x80007e98
    80007e58:	00000693          	li	a3,0
    80007e5c:	00000613          	li	a2,0
    80007e60:	00100593          	li	a1,1
    80007e64:	f7040513          	addi	a0,s0,-144
    80007e68:	fffff097          	auipc	ra,0xfffff
    80007e6c:	5a4080e7          	jalr	1444(ra) # 0x8000740c
    80007e70:	02050463          	beqz	a0,0x80007e98
    80007e74:	ffffd097          	auipc	ra,0xffffd
    80007e78:	370080e7          	jalr	880(ra) # 0x800051e4
    80007e7c:	ffffe097          	auipc	ra,0xffffe
    80007e80:	0e0080e7          	jalr	224(ra) # 0x80005f5c
    80007e84:	00000513          	li	a0,0
    80007e88:	08813083          	ld	ra,136(sp)
    80007e8c:	08013403          	ld	s0,128(sp)
    80007e90:	09010113          	addi	sp,sp,144
    80007e94:	00008067          	ret
    80007e98:	ffffe097          	auipc	ra,0xffffe
    80007e9c:	0c4080e7          	jalr	196(ra) # 0x80005f5c
    80007ea0:	fff00513          	li	a0,-1
    80007ea4:	fe5ff06f          	j	0x80007e88
    80007ea8:	f6010113          	addi	sp,sp,-160
    80007eac:	08113c23          	sd	ra,152(sp)
    80007eb0:	08813823          	sd	s0,144(sp)
    80007eb4:	0a010413          	addi	s0,sp,160
    80007eb8:	ffffe097          	auipc	ra,0xffffe
    80007ebc:	ff0080e7          	jalr	-16(ra) # 0x80005ea8
    80007ec0:	f6c40593          	addi	a1,s0,-148
    80007ec4:	00100513          	li	a0,1
    80007ec8:	ffffc097          	auipc	ra,0xffffc
    80007ecc:	07c080e7          	jalr	124(ra) # 0x80003f44
    80007ed0:	f6840593          	addi	a1,s0,-152
    80007ed4:	00200513          	li	a0,2
    80007ed8:	ffffc097          	auipc	ra,0xffffc
    80007edc:	06c080e7          	jalr	108(ra) # 0x80003f44
    80007ee0:	08000613          	li	a2,128
    80007ee4:	f7040593          	addi	a1,s0,-144
    80007ee8:	00000513          	li	a0,0
    80007eec:	ffffc097          	auipc	ra,0xffffc
    80007ef0:	0c8080e7          	jalr	200(ra) # 0x80003fb4
    80007ef4:	04054263          	bltz	a0,0x80007f38
    80007ef8:	f6841683          	lh	a3,-152(s0)
    80007efc:	f6c41603          	lh	a2,-148(s0)
    80007f00:	00300593          	li	a1,3
    80007f04:	f7040513          	addi	a0,s0,-144
    80007f08:	fffff097          	auipc	ra,0xfffff
    80007f0c:	504080e7          	jalr	1284(ra) # 0x8000740c
    80007f10:	02050463          	beqz	a0,0x80007f38
    80007f14:	ffffd097          	auipc	ra,0xffffd
    80007f18:	2d0080e7          	jalr	720(ra) # 0x800051e4
    80007f1c:	ffffe097          	auipc	ra,0xffffe
    80007f20:	040080e7          	jalr	64(ra) # 0x80005f5c
    80007f24:	00000513          	li	a0,0
    80007f28:	09813083          	ld	ra,152(sp)
    80007f2c:	09013403          	ld	s0,144(sp)
    80007f30:	0a010113          	addi	sp,sp,160
    80007f34:	00008067          	ret
    80007f38:	ffffe097          	auipc	ra,0xffffe
    80007f3c:	024080e7          	jalr	36(ra) # 0x80005f5c
    80007f40:	fff00513          	li	a0,-1
    80007f44:	fe5ff06f          	j	0x80007f28
    80007f48:	f6010113          	addi	sp,sp,-160
    80007f4c:	08113c23          	sd	ra,152(sp)
    80007f50:	08813823          	sd	s0,144(sp)
    80007f54:	08913423          	sd	s1,136(sp)
    80007f58:	09213023          	sd	s2,128(sp)
    80007f5c:	0a010413          	addi	s0,sp,160
    80007f60:	ffffa097          	auipc	ra,0xffffa
    80007f64:	798080e7          	jalr	1944(ra) # 0x800026f8
    80007f68:	00050913          	mv	s2,a0
    80007f6c:	ffffe097          	auipc	ra,0xffffe
    80007f70:	f3c080e7          	jalr	-196(ra) # 0x80005ea8
    80007f74:	08000613          	li	a2,128
    80007f78:	f6040593          	addi	a1,s0,-160
    80007f7c:	00000513          	li	a0,0
    80007f80:	ffffc097          	auipc	ra,0xffffc
    80007f84:	034080e7          	jalr	52(ra) # 0x80003fb4
    80007f88:	06054663          	bltz	a0,0x80007ff4
    80007f8c:	f6040513          	addi	a0,s0,-160
    80007f90:	ffffe097          	auipc	ra,0xffffe
    80007f94:	c04080e7          	jalr	-1020(ra) # 0x80005b94
    80007f98:	00050493          	mv	s1,a0
    80007f9c:	04050c63          	beqz	a0,0x80007ff4
    80007fa0:	ffffd097          	auipc	ra,0xffffd
    80007fa4:	f08080e7          	jalr	-248(ra) # 0x80004ea8
    80007fa8:	04449703          	lh	a4,68(s1)
    80007fac:	00100793          	li	a5,1
    80007fb0:	04f71a63          	bne	a4,a5,0x80008004
    80007fb4:	00048513          	mv	a0,s1
    80007fb8:	ffffd097          	auipc	ra,0xffffd
    80007fbc:	ff4080e7          	jalr	-12(ra) # 0x80004fac
    80007fc0:	15093503          	ld	a0,336(s2)
    80007fc4:	ffffd097          	auipc	ra,0xffffd
    80007fc8:	144080e7          	jalr	324(ra) # 0x80005108
    80007fcc:	ffffe097          	auipc	ra,0xffffe
    80007fd0:	f90080e7          	jalr	-112(ra) # 0x80005f5c
    80007fd4:	14993823          	sd	s1,336(s2)
    80007fd8:	00000513          	li	a0,0
    80007fdc:	09813083          	ld	ra,152(sp)
    80007fe0:	09013403          	ld	s0,144(sp)
    80007fe4:	08813483          	ld	s1,136(sp)
    80007fe8:	08013903          	ld	s2,128(sp)
    80007fec:	0a010113          	addi	sp,sp,160
    80007ff0:	00008067          	ret
    80007ff4:	ffffe097          	auipc	ra,0xffffe
    80007ff8:	f68080e7          	jalr	-152(ra) # 0x80005f5c
    80007ffc:	fff00513          	li	a0,-1
    80008000:	fddff06f          	j	0x80007fdc
    80008004:	00048513          	mv	a0,s1
    80008008:	ffffd097          	auipc	ra,0xffffd
    8000800c:	1dc080e7          	jalr	476(ra) # 0x800051e4
    80008010:	ffffe097          	auipc	ra,0xffffe
    80008014:	f4c080e7          	jalr	-180(ra) # 0x80005f5c
    80008018:	fff00513          	li	a0,-1
    8000801c:	fc1ff06f          	j	0x80007fdc
    80008020:	e3010113          	addi	sp,sp,-464
    80008024:	1c113423          	sd	ra,456(sp)
    80008028:	1c813023          	sd	s0,448(sp)
    8000802c:	1a913c23          	sd	s1,440(sp)
    80008030:	1b213823          	sd	s2,432(sp)
    80008034:	1b313423          	sd	s3,424(sp)
    80008038:	1b413023          	sd	s4,416(sp)
    8000803c:	19513c23          	sd	s5,408(sp)
    80008040:	1d010413          	addi	s0,sp,464
    80008044:	e3840593          	addi	a1,s0,-456
    80008048:	00100513          	li	a0,1
    8000804c:	ffffc097          	auipc	ra,0xffffc
    80008050:	f30080e7          	jalr	-208(ra) # 0x80003f7c
    80008054:	08000613          	li	a2,128
    80008058:	f4040593          	addi	a1,s0,-192
    8000805c:	00000513          	li	a0,0
    80008060:	ffffc097          	auipc	ra,0xffffc
    80008064:	f54080e7          	jalr	-172(ra) # 0x80003fb4
    80008068:	00050793          	mv	a5,a0
    8000806c:	fff00513          	li	a0,-1
    80008070:	0e07ca63          	bltz	a5,0x80008164
    80008074:	10000613          	li	a2,256
    80008078:	00000593          	li	a1,0
    8000807c:	e4040513          	addi	a0,s0,-448
    80008080:	ffff9097          	auipc	ra,0xffff9
    80008084:	170080e7          	jalr	368(ra) # 0x800011f0
    80008088:	e4040493          	addi	s1,s0,-448
    8000808c:	00048993          	mv	s3,s1
    80008090:	00000913          	li	s2,0
    80008094:	02000a13          	li	s4,32
    80008098:	00090a9b          	sext.w	s5,s2
    8000809c:	00391513          	slli	a0,s2,0x3
    800080a0:	e3040593          	addi	a1,s0,-464
    800080a4:	e3843783          	ld	a5,-456(s0)
    800080a8:	00f50533          	add	a0,a0,a5
    800080ac:	ffffc097          	auipc	ra,0xffffc
    800080b0:	d9c080e7          	jalr	-612(ra) # 0x80003e48
    800080b4:	04054063          	bltz	a0,0x800080f4
    800080b8:	e3043783          	ld	a5,-464(s0)
    800080bc:	04078e63          	beqz	a5,0x80008118
    800080c0:	ffff9097          	auipc	ra,0xffff9
    800080c4:	e6c080e7          	jalr	-404(ra) # 0x80000f2c
    800080c8:	00050593          	mv	a1,a0
    800080cc:	00a9b023          	sd	a0,0(s3)
    800080d0:	02050263          	beqz	a0,0x800080f4
    800080d4:	00001637          	lui	a2,0x1
    800080d8:	e3043503          	ld	a0,-464(s0)
    800080dc:	ffffc097          	auipc	ra,0xffffc
    800080e0:	dec080e7          	jalr	-532(ra) # 0x80003ec8
    800080e4:	00054863          	bltz	a0,0x800080f4
    800080e8:	00190913          	addi	s2,s2,1
    800080ec:	00898993          	addi	s3,s3,8
    800080f0:	fb4914e3          	bne	s2,s4,0x80008098
    800080f4:	f4040913          	addi	s2,s0,-192
    800080f8:	0004b503          	ld	a0,0(s1)
    800080fc:	06050263          	beqz	a0,0x80008160
    80008100:	ffff9097          	auipc	ra,0xffff9
    80008104:	cc0080e7          	jalr	-832(ra) # 0x80000dc0
    80008108:	00848493          	addi	s1,s1,8
    8000810c:	ff2496e3          	bne	s1,s2,0x800080f8
    80008110:	fff00513          	li	a0,-1
    80008114:	0500006f          	j	0x80008164
    80008118:	003a9a93          	slli	s5,s5,0x3
    8000811c:	fc0a8793          	addi	a5,s5,-64
    80008120:	00878ab3          	add	s5,a5,s0
    80008124:	e80ab023          	sd	zero,-384(s5)
    80008128:	e4040593          	addi	a1,s0,-448
    8000812c:	f4040513          	addi	a0,s0,-192
    80008130:	fffff097          	auipc	ra,0xfffff
    80008134:	d10080e7          	jalr	-752(ra) # 0x80006e40
    80008138:	00050913          	mv	s2,a0
    8000813c:	f4040993          	addi	s3,s0,-192
    80008140:	0004b503          	ld	a0,0(s1)
    80008144:	00050a63          	beqz	a0,0x80008158
    80008148:	ffff9097          	auipc	ra,0xffff9
    8000814c:	c78080e7          	jalr	-904(ra) # 0x80000dc0
    80008150:	00848493          	addi	s1,s1,8
    80008154:	ff3496e3          	bne	s1,s3,0x80008140
    80008158:	00090513          	mv	a0,s2
    8000815c:	0080006f          	j	0x80008164
    80008160:	fff00513          	li	a0,-1
    80008164:	1c813083          	ld	ra,456(sp)
    80008168:	1c013403          	ld	s0,448(sp)
    8000816c:	1b813483          	ld	s1,440(sp)
    80008170:	1b013903          	ld	s2,432(sp)
    80008174:	1a813983          	ld	s3,424(sp)
    80008178:	1a013a03          	ld	s4,416(sp)
    8000817c:	19813a83          	ld	s5,408(sp)
    80008180:	1d010113          	addi	sp,sp,464
    80008184:	00008067          	ret
    80008188:	fc010113          	addi	sp,sp,-64
    8000818c:	02113c23          	sd	ra,56(sp)
    80008190:	02813823          	sd	s0,48(sp)
    80008194:	02913423          	sd	s1,40(sp)
    80008198:	04010413          	addi	s0,sp,64
    8000819c:	ffffa097          	auipc	ra,0xffffa
    800081a0:	55c080e7          	jalr	1372(ra) # 0x800026f8
    800081a4:	00050493          	mv	s1,a0
    800081a8:	fd840593          	addi	a1,s0,-40
    800081ac:	00000513          	li	a0,0
    800081b0:	ffffc097          	auipc	ra,0xffffc
    800081b4:	dcc080e7          	jalr	-564(ra) # 0x80003f7c
    800081b8:	fc840593          	addi	a1,s0,-56
    800081bc:	fd040513          	addi	a0,s0,-48
    800081c0:	ffffe097          	auipc	ra,0xffffe
    800081c4:	7f0080e7          	jalr	2032(ra) # 0x800069b0
    800081c8:	fff00793          	li	a5,-1
    800081cc:	0e054663          	bltz	a0,0x800082b8
    800081d0:	fcf42223          	sw	a5,-60(s0)
    800081d4:	fd043503          	ld	a0,-48(s0)
    800081d8:	fffff097          	auipc	ra,0xfffff
    800081dc:	1c4080e7          	jalr	452(ra) # 0x8000739c
    800081e0:	fca42223          	sw	a0,-60(s0)
    800081e4:	0a054c63          	bltz	a0,0x8000829c
    800081e8:	fc843503          	ld	a0,-56(s0)
    800081ec:	fffff097          	auipc	ra,0xfffff
    800081f0:	1b0080e7          	jalr	432(ra) # 0x8000739c
    800081f4:	fca42023          	sw	a0,-64(s0)
    800081f8:	08054663          	bltz	a0,0x80008284
    800081fc:	00400693          	li	a3,4
    80008200:	fc440613          	addi	a2,s0,-60
    80008204:	fd843583          	ld	a1,-40(s0)
    80008208:	0504b503          	ld	a0,80(s1)
    8000820c:	ffffa097          	auipc	ra,0xffffa
    80008210:	078080e7          	jalr	120(ra) # 0x80002284
    80008214:	02054463          	bltz	a0,0x8000823c
    80008218:	00400693          	li	a3,4
    8000821c:	fc040613          	addi	a2,s0,-64
    80008220:	fd843583          	ld	a1,-40(s0)
    80008224:	00458593          	addi	a1,a1,4
    80008228:	0504b503          	ld	a0,80(s1)
    8000822c:	ffffa097          	auipc	ra,0xffffa
    80008230:	058080e7          	jalr	88(ra) # 0x80002284
    80008234:	00000793          	li	a5,0
    80008238:	08055063          	bgez	a0,0x800082b8
    8000823c:	fc442783          	lw	a5,-60(s0)
    80008240:	01a78793          	addi	a5,a5,26
    80008244:	00379793          	slli	a5,a5,0x3
    80008248:	00f487b3          	add	a5,s1,a5
    8000824c:	0007b023          	sd	zero,0(a5)
    80008250:	fc042783          	lw	a5,-64(s0)
    80008254:	01a78793          	addi	a5,a5,26
    80008258:	00379793          	slli	a5,a5,0x3
    8000825c:	00f484b3          	add	s1,s1,a5
    80008260:	0004b023          	sd	zero,0(s1)
    80008264:	fd043503          	ld	a0,-48(s0)
    80008268:	ffffe097          	auipc	ra,0xffffe
    8000826c:	2bc080e7          	jalr	700(ra) # 0x80006524
    80008270:	fc843503          	ld	a0,-56(s0)
    80008274:	ffffe097          	auipc	ra,0xffffe
    80008278:	2b0080e7          	jalr	688(ra) # 0x80006524
    8000827c:	fff00793          	li	a5,-1
    80008280:	0380006f          	j	0x800082b8
    80008284:	fc442783          	lw	a5,-60(s0)
    80008288:	0007ca63          	bltz	a5,0x8000829c
    8000828c:	01a78793          	addi	a5,a5,26
    80008290:	00379793          	slli	a5,a5,0x3
    80008294:	00f487b3          	add	a5,s1,a5
    80008298:	0007b023          	sd	zero,0(a5)
    8000829c:	fd043503          	ld	a0,-48(s0)
    800082a0:	ffffe097          	auipc	ra,0xffffe
    800082a4:	284080e7          	jalr	644(ra) # 0x80006524
    800082a8:	fc843503          	ld	a0,-56(s0)
    800082ac:	ffffe097          	auipc	ra,0xffffe
    800082b0:	278080e7          	jalr	632(ra) # 0x80006524
    800082b4:	fff00793          	li	a5,-1
    800082b8:	00078513          	mv	a0,a5
    800082bc:	03813083          	ld	ra,56(sp)
    800082c0:	03013403          	ld	s0,48(sp)
    800082c4:	02813483          	ld	s1,40(sp)
    800082c8:	04010113          	addi	sp,sp,64
    800082cc:	00008067          	ret
    800082d0:	f0010113          	addi	sp,sp,-256
    800082d4:	00113023          	sd	ra,0(sp)
    800082d8:	00313823          	sd	gp,16(sp)
    800082dc:	00413c23          	sd	tp,24(sp)
    800082e0:	02513023          	sd	t0,32(sp)
    800082e4:	02613423          	sd	t1,40(sp)
    800082e8:	02713823          	sd	t2,48(sp)
    800082ec:	04a13423          	sd	a0,72(sp)
    800082f0:	04b13823          	sd	a1,80(sp)
    800082f4:	04c13c23          	sd	a2,88(sp)
    800082f8:	06d13023          	sd	a3,96(sp)
    800082fc:	06e13423          	sd	a4,104(sp)
    80008300:	06f13823          	sd	a5,112(sp)
    80008304:	07013c23          	sd	a6,120(sp)
    80008308:	09113023          	sd	a7,128(sp)
    8000830c:	0dc13c23          	sd	t3,216(sp)
    80008310:	0fd13023          	sd	t4,224(sp)
    80008314:	0fe13423          	sd	t5,232(sp)
    80008318:	0ff13823          	sd	t6,240(sp)
    8000831c:	9a9fb0ef          	jal	ra,0x80003cc4
    80008320:	00013083          	ld	ra,0(sp)
    80008324:	01013183          	ld	gp,16(sp)
    80008328:	02013283          	ld	t0,32(sp)
    8000832c:	02813303          	ld	t1,40(sp)
    80008330:	03013383          	ld	t2,48(sp)
    80008334:	04813503          	ld	a0,72(sp)
    80008338:	05013583          	ld	a1,80(sp)
    8000833c:	05813603          	ld	a2,88(sp)
    80008340:	06013683          	ld	a3,96(sp)
    80008344:	06813703          	ld	a4,104(sp)
    80008348:	07013783          	ld	a5,112(sp)
    8000834c:	07813803          	ld	a6,120(sp)
    80008350:	08013883          	ld	a7,128(sp)
    80008354:	0d813e03          	ld	t3,216(sp)
    80008358:	0e013e83          	ld	t4,224(sp)
    8000835c:	0e813f03          	ld	t5,232(sp)
    80008360:	0f013f83          	ld	t6,240(sp)
    80008364:	10010113          	addi	sp,sp,256
    80008368:	10200073          	sret
    8000836c:	0000                	unimp
    8000836e:	0000                	unimp
    80008370:	ff010113          	addi	sp,sp,-16
    80008374:	00813423          	sd	s0,8(sp)
    80008378:	01010413          	addi	s0,sp,16
    8000837c:	0c0007b7          	lui	a5,0xc000
    80008380:	00100713          	li	a4,1
    80008384:	02e7a423          	sw	a4,40(a5) # 0xc000028
    80008388:	00e7a223          	sw	a4,4(a5)
    8000838c:	00813403          	ld	s0,8(sp)
    80008390:	01010113          	addi	sp,sp,16
    80008394:	00008067          	ret
    80008398:	ff010113          	addi	sp,sp,-16
    8000839c:	00113423          	sd	ra,8(sp)
    800083a0:	00813023          	sd	s0,0(sp)
    800083a4:	01010413          	addi	s0,sp,16
    800083a8:	ffffa097          	auipc	ra,0xffffa
    800083ac:	300080e7          	jalr	768(ra) # 0x800026a8
    800083b0:	0085171b          	slliw	a4,a0,0x8
    800083b4:	0c0027b7          	lui	a5,0xc002
    800083b8:	00e787b3          	add	a5,a5,a4
    800083bc:	40200713          	li	a4,1026
    800083c0:	08e7a023          	sw	a4,128(a5) # 0xc002080
    800083c4:	00d5151b          	slliw	a0,a0,0xd
    800083c8:	0c2017b7          	lui	a5,0xc201
    800083cc:	00a787b3          	add	a5,a5,a0
    800083d0:	0007a023          	sw	zero,0(a5) # 0xc201000
    800083d4:	00813083          	ld	ra,8(sp)
    800083d8:	00013403          	ld	s0,0(sp)
    800083dc:	01010113          	addi	sp,sp,16
    800083e0:	00008067          	ret
    800083e4:	ff010113          	addi	sp,sp,-16
    800083e8:	00113423          	sd	ra,8(sp)
    800083ec:	00813023          	sd	s0,0(sp)
    800083f0:	01010413          	addi	s0,sp,16
    800083f4:	ffffa097          	auipc	ra,0xffffa
    800083f8:	2b4080e7          	jalr	692(ra) # 0x800026a8
    800083fc:	00d5151b          	slliw	a0,a0,0xd
    80008400:	0c2017b7          	lui	a5,0xc201
    80008404:	00a787b3          	add	a5,a5,a0
    80008408:	0047a503          	lw	a0,4(a5) # 0xc201004
    8000840c:	00813083          	ld	ra,8(sp)
    80008410:	00013403          	ld	s0,0(sp)
    80008414:	01010113          	addi	sp,sp,16
    80008418:	00008067          	ret
    8000841c:	fe010113          	addi	sp,sp,-32
    80008420:	00113c23          	sd	ra,24(sp)
    80008424:	00813823          	sd	s0,16(sp)
    80008428:	00913423          	sd	s1,8(sp)
    8000842c:	02010413          	addi	s0,sp,32
    80008430:	00050493          	mv	s1,a0
    80008434:	ffffa097          	auipc	ra,0xffffa
    80008438:	274080e7          	jalr	628(ra) # 0x800026a8
    8000843c:	00d5151b          	slliw	a0,a0,0xd
    80008440:	0c2017b7          	lui	a5,0xc201
    80008444:	00a787b3          	add	a5,a5,a0
    80008448:	0097a223          	sw	s1,4(a5) # 0xc201004
    8000844c:	01813083          	ld	ra,24(sp)
    80008450:	01013403          	ld	s0,16(sp)
    80008454:	00813483          	ld	s1,8(sp)
    80008458:	02010113          	addi	sp,sp,32
    8000845c:	00008067          	ret
    80008460:	ff010113          	addi	sp,sp,-16
    80008464:	00113423          	sd	ra,8(sp)
    80008468:	00813023          	sd	s0,0(sp)
    8000846c:	01010413          	addi	s0,sp,16
    80008470:	00700793          	li	a5,7
    80008474:	06a7c863          	blt	a5,a0,0x800084e4
    80008478:	0001b797          	auipc	a5,0x1b
    8000847c:	71078793          	addi	a5,a5,1808 # 0x80023b88
    80008480:	00a787b3          	add	a5,a5,a0
    80008484:	0187c783          	lbu	a5,24(a5)
    80008488:	06079663          	bnez	a5,0x800084f4
    8000848c:	00451693          	slli	a3,a0,0x4
    80008490:	0001b797          	auipc	a5,0x1b
    80008494:	6f878793          	addi	a5,a5,1784 # 0x80023b88
    80008498:	0007b703          	ld	a4,0(a5)
    8000849c:	00d70733          	add	a4,a4,a3
    800084a0:	00073023          	sd	zero,0(a4)
    800084a4:	0007b703          	ld	a4,0(a5)
    800084a8:	00d70733          	add	a4,a4,a3
    800084ac:	00072423          	sw	zero,8(a4)
    800084b0:	00071623          	sh	zero,12(a4)
    800084b4:	00071723          	sh	zero,14(a4)
    800084b8:	00a787b3          	add	a5,a5,a0
    800084bc:	00100713          	li	a4,1
    800084c0:	00e78c23          	sb	a4,24(a5)
    800084c4:	0001b517          	auipc	a0,0x1b
    800084c8:	6dc50513          	addi	a0,a0,1756 # 0x80023ba0
    800084cc:	ffffb097          	auipc	ra,0xffffb
    800084d0:	c74080e7          	jalr	-908(ra) # 0x80003140
    800084d4:	00813083          	ld	ra,8(sp)
    800084d8:	00013403          	ld	s0,0(sp)
    800084dc:	01010113          	addi	sp,sp,16
    800084e0:	00008067          	ret
    800084e4:	00002517          	auipc	a0,0x2
    800084e8:	39c50513          	addi	a0,a0,924 # 0x8000a880
    800084ec:	ffff8097          	auipc	ra,0xffff8
    800084f0:	594080e7          	jalr	1428(ra) # 0x80000a80
    800084f4:	00002517          	auipc	a0,0x2
    800084f8:	39c50513          	addi	a0,a0,924 # 0x8000a890
    800084fc:	ffff8097          	auipc	ra,0xffff8
    80008500:	584080e7          	jalr	1412(ra) # 0x80000a80
    80008504:	fe010113          	addi	sp,sp,-32
    80008508:	00113c23          	sd	ra,24(sp)
    8000850c:	00813823          	sd	s0,16(sp)
    80008510:	00913423          	sd	s1,8(sp)
    80008514:	01213023          	sd	s2,0(sp)
    80008518:	02010413          	addi	s0,sp,32
    8000851c:	00002597          	auipc	a1,0x2
    80008520:	38458593          	addi	a1,a1,900 # 0x8000a8a0
    80008524:	0001b517          	auipc	a0,0x1b
    80008528:	78c50513          	addi	a0,a0,1932 # 0x80023cb0
    8000852c:	ffff9097          	auipc	ra,0xffff9
    80008530:	a88080e7          	jalr	-1400(ra) # 0x80000fb4
    80008534:	100017b7          	lui	a5,0x10001
    80008538:	0007a703          	lw	a4,0(a5) # 0x10001000
    8000853c:	0007071b          	sext.w	a4,a4
    80008540:	747277b7          	lui	a5,0x74727
    80008544:	97678793          	addi	a5,a5,-1674 # 0x74726976
    80008548:	1cf71263          	bne	a4,a5,0x8000870c
    8000854c:	100017b7          	lui	a5,0x10001
    80008550:	0047a783          	lw	a5,4(a5) # 0x10001004
    80008554:	0007879b          	sext.w	a5,a5
    80008558:	00200713          	li	a4,2
    8000855c:	1ae79863          	bne	a5,a4,0x8000870c
    80008560:	100017b7          	lui	a5,0x10001
    80008564:	0087a783          	lw	a5,8(a5) # 0x10001008
    80008568:	0007879b          	sext.w	a5,a5
    8000856c:	1ae79063          	bne	a5,a4,0x8000870c
    80008570:	100017b7          	lui	a5,0x10001
    80008574:	00c7a703          	lw	a4,12(a5) # 0x1000100c
    80008578:	0007071b          	sext.w	a4,a4
    8000857c:	554d47b7          	lui	a5,0x554d4
    80008580:	55178793          	addi	a5,a5,1361 # 0x554d4551
    80008584:	18f71463          	bne	a4,a5,0x8000870c
    80008588:	100017b7          	lui	a5,0x10001
    8000858c:	0607a823          	sw	zero,112(a5) # 0x10001070
    80008590:	00100713          	li	a4,1
    80008594:	06e7a823          	sw	a4,112(a5)
    80008598:	00300713          	li	a4,3
    8000859c:	06e7a823          	sw	a4,112(a5)
    800085a0:	0107a703          	lw	a4,16(a5)
    800085a4:	c7ffe6b7          	lui	a3,0xc7ffe
    800085a8:	75f68693          	addi	a3,a3,1887 # 0xffffffffc7ffe75f
    800085ac:	00d77733          	and	a4,a4,a3
    800085b0:	02e7a023          	sw	a4,32(a5)
    800085b4:	00b00713          	li	a4,11
    800085b8:	06e7a823          	sw	a4,112(a5)
    800085bc:	0707a783          	lw	a5,112(a5)
    800085c0:	0007891b          	sext.w	s2,a5
    800085c4:	0087f793          	andi	a5,a5,8
    800085c8:	14078a63          	beqz	a5,0x8000871c
    800085cc:	100017b7          	lui	a5,0x10001
    800085d0:	0207a823          	sw	zero,48(a5) # 0x10001030
    800085d4:	0447a783          	lw	a5,68(a5)
    800085d8:	0007879b          	sext.w	a5,a5
    800085dc:	14079863          	bnez	a5,0x8000872c
    800085e0:	100017b7          	lui	a5,0x10001
    800085e4:	0347a783          	lw	a5,52(a5) # 0x10001034
    800085e8:	0007879b          	sext.w	a5,a5
    800085ec:	14078863          	beqz	a5,0x8000873c
    800085f0:	00700713          	li	a4,7
    800085f4:	14f77c63          	bgeu	a4,a5,0x8000874c
    800085f8:	ffff9097          	auipc	ra,0xffff9
    800085fc:	934080e7          	jalr	-1740(ra) # 0x80000f2c
    80008600:	0001b497          	auipc	s1,0x1b
    80008604:	58848493          	addi	s1,s1,1416 # 0x80023b88
    80008608:	00a4b023          	sd	a0,0(s1)
    8000860c:	ffff9097          	auipc	ra,0xffff9
    80008610:	920080e7          	jalr	-1760(ra) # 0x80000f2c
    80008614:	00a4b423          	sd	a0,8(s1)
    80008618:	ffff9097          	auipc	ra,0xffff9
    8000861c:	914080e7          	jalr	-1772(ra) # 0x80000f2c
    80008620:	00050793          	mv	a5,a0
    80008624:	00a4b823          	sd	a0,16(s1)
    80008628:	0004b503          	ld	a0,0(s1)
    8000862c:	12050863          	beqz	a0,0x8000875c
    80008630:	0001b717          	auipc	a4,0x1b
    80008634:	56073703          	ld	a4,1376(a4) # 0x80023b90
    80008638:	12070263          	beqz	a4,0x8000875c
    8000863c:	12078063          	beqz	a5,0x8000875c
    80008640:	00001637          	lui	a2,0x1
    80008644:	00000593          	li	a1,0
    80008648:	ffff9097          	auipc	ra,0xffff9
    8000864c:	ba8080e7          	jalr	-1112(ra) # 0x800011f0
    80008650:	0001b497          	auipc	s1,0x1b
    80008654:	53848493          	addi	s1,s1,1336 # 0x80023b88
    80008658:	00001637          	lui	a2,0x1
    8000865c:	00000593          	li	a1,0
    80008660:	0084b503          	ld	a0,8(s1)
    80008664:	ffff9097          	auipc	ra,0xffff9
    80008668:	b8c080e7          	jalr	-1140(ra) # 0x800011f0
    8000866c:	00001637          	lui	a2,0x1
    80008670:	00000593          	li	a1,0
    80008674:	0104b503          	ld	a0,16(s1)
    80008678:	ffff9097          	auipc	ra,0xffff9
    8000867c:	b78080e7          	jalr	-1160(ra) # 0x800011f0
    80008680:	100017b7          	lui	a5,0x10001
    80008684:	00800713          	li	a4,8
    80008688:	02e7ac23          	sw	a4,56(a5) # 0x10001038
    8000868c:	0004a703          	lw	a4,0(s1)
    80008690:	08e7a023          	sw	a4,128(a5)
    80008694:	0044a703          	lw	a4,4(s1)
    80008698:	08e7a223          	sw	a4,132(a5)
    8000869c:	0084b703          	ld	a4,8(s1)
    800086a0:	0007069b          	sext.w	a3,a4
    800086a4:	08d7a823          	sw	a3,144(a5)
    800086a8:	42075713          	srai	a4,a4,0x20
    800086ac:	08e7aa23          	sw	a4,148(a5)
    800086b0:	0104b703          	ld	a4,16(s1)
    800086b4:	0007069b          	sext.w	a3,a4
    800086b8:	0ad7a023          	sw	a3,160(a5)
    800086bc:	42075713          	srai	a4,a4,0x20
    800086c0:	0ae7a223          	sw	a4,164(a5)
    800086c4:	00100713          	li	a4,1
    800086c8:	04e7a223          	sw	a4,68(a5)
    800086cc:	00e48c23          	sb	a4,24(s1)
    800086d0:	00e48ca3          	sb	a4,25(s1)
    800086d4:	00e48d23          	sb	a4,26(s1)
    800086d8:	00e48da3          	sb	a4,27(s1)
    800086dc:	00e48e23          	sb	a4,28(s1)
    800086e0:	00e48ea3          	sb	a4,29(s1)
    800086e4:	00e48f23          	sb	a4,30(s1)
    800086e8:	00e48fa3          	sb	a4,31(s1)
    800086ec:	00496913          	ori	s2,s2,4
    800086f0:	0727a823          	sw	s2,112(a5)
    800086f4:	01813083          	ld	ra,24(sp)
    800086f8:	01013403          	ld	s0,16(sp)
    800086fc:	00813483          	ld	s1,8(sp)
    80008700:	00013903          	ld	s2,0(sp)
    80008704:	02010113          	addi	sp,sp,32
    80008708:	00008067          	ret
    8000870c:	00002517          	auipc	a0,0x2
    80008710:	1a450513          	addi	a0,a0,420 # 0x8000a8b0
    80008714:	ffff8097          	auipc	ra,0xffff8
    80008718:	36c080e7          	jalr	876(ra) # 0x80000a80
    8000871c:	00002517          	auipc	a0,0x2
    80008720:	1b450513          	addi	a0,a0,436 # 0x8000a8d0
    80008724:	ffff8097          	auipc	ra,0xffff8
    80008728:	35c080e7          	jalr	860(ra) # 0x80000a80
    8000872c:	00002517          	auipc	a0,0x2
    80008730:	1c450513          	addi	a0,a0,452 # 0x8000a8f0
    80008734:	ffff8097          	auipc	ra,0xffff8
    80008738:	34c080e7          	jalr	844(ra) # 0x80000a80
    8000873c:	00002517          	auipc	a0,0x2
    80008740:	1d450513          	addi	a0,a0,468 # 0x8000a910
    80008744:	ffff8097          	auipc	ra,0xffff8
    80008748:	33c080e7          	jalr	828(ra) # 0x80000a80
    8000874c:	00002517          	auipc	a0,0x2
    80008750:	1e450513          	addi	a0,a0,484 # 0x8000a930
    80008754:	ffff8097          	auipc	ra,0xffff8
    80008758:	32c080e7          	jalr	812(ra) # 0x80000a80
    8000875c:	00002517          	auipc	a0,0x2
    80008760:	1f450513          	addi	a0,a0,500 # 0x8000a950
    80008764:	ffff8097          	auipc	ra,0xffff8
    80008768:	31c080e7          	jalr	796(ra) # 0x80000a80
    8000876c:	f8010113          	addi	sp,sp,-128
    80008770:	06113c23          	sd	ra,120(sp)
    80008774:	06813823          	sd	s0,112(sp)
    80008778:	06913423          	sd	s1,104(sp)
    8000877c:	07213023          	sd	s2,96(sp)
    80008780:	05313c23          	sd	s3,88(sp)
    80008784:	05413823          	sd	s4,80(sp)
    80008788:	05513423          	sd	s5,72(sp)
    8000878c:	05613023          	sd	s6,64(sp)
    80008790:	03713c23          	sd	s7,56(sp)
    80008794:	03813823          	sd	s8,48(sp)
    80008798:	03913423          	sd	s9,40(sp)
    8000879c:	03a13023          	sd	s10,32(sp)
    800087a0:	01b13c23          	sd	s11,24(sp)
    800087a4:	08010413          	addi	s0,sp,128
    800087a8:	00050a93          	mv	s5,a0
    800087ac:	00058c13          	mv	s8,a1
    800087b0:	00c52d03          	lw	s10,12(a0)
    800087b4:	001d1d1b          	slliw	s10,s10,0x1
    800087b8:	020d1d13          	slli	s10,s10,0x20
    800087bc:	020d5d13          	srli	s10,s10,0x20
    800087c0:	0001b517          	auipc	a0,0x1b
    800087c4:	4f050513          	addi	a0,a0,1264 # 0x80023cb0
    800087c8:	ffff9097          	auipc	ra,0xffff9
    800087cc:	8d0080e7          	jalr	-1840(ra) # 0x80001098
    800087d0:	00000993          	li	s3,0
    800087d4:	00800493          	li	s1,8
    800087d8:	0001bb97          	auipc	s7,0x1b
    800087dc:	3b0b8b93          	addi	s7,s7,944 # 0x80023b88
    800087e0:	00300b13          	li	s6,3
    800087e4:	0001bc97          	auipc	s9,0x1b
    800087e8:	4ccc8c93          	addi	s9,s9,1228 # 0x80023cb0
    800087ec:	0800006f          	j	0x8000886c
    800087f0:	00fb8733          	add	a4,s7,a5
    800087f4:	00070c23          	sb	zero,24(a4)
    800087f8:	00f5a023          	sw	a5,0(a1)
    800087fc:	0207ce63          	bltz	a5,0x80008838
    80008800:	0019091b          	addiw	s2,s2,1
    80008804:	00460613          	addi	a2,a2,4 # 0x1004
    80008808:	07690a63          	beq	s2,s6,0x8000887c
    8000880c:	00060593          	mv	a1,a2
    80008810:	0001b717          	auipc	a4,0x1b
    80008814:	37870713          	addi	a4,a4,888 # 0x80023b88
    80008818:	00098793          	mv	a5,s3
    8000881c:	01874683          	lbu	a3,24(a4)
    80008820:	fc0698e3          	bnez	a3,0x800087f0
    80008824:	0017879b          	addiw	a5,a5,1
    80008828:	00170713          	addi	a4,a4,1
    8000882c:	fe9798e3          	bne	a5,s1,0x8000881c
    80008830:	fff00793          	li	a5,-1
    80008834:	00f5a023          	sw	a5,0(a1)
    80008838:	03205063          	blez	s2,0x80008858
    8000883c:	00098d93          	mv	s11,s3
    80008840:	000a2503          	lw	a0,0(s4)
    80008844:	00000097          	auipc	ra,0x0
    80008848:	c1c080e7          	jalr	-996(ra) # 0x80008460
    8000884c:	001d8d9b          	addiw	s11,s11,1
    80008850:	004a0a13          	addi	s4,s4,4
    80008854:	ff2d96e3          	bne	s11,s2,0x80008840
    80008858:	000c8593          	mv	a1,s9
    8000885c:	0001b517          	auipc	a0,0x1b
    80008860:	34450513          	addi	a0,a0,836 # 0x80023ba0
    80008864:	ffffb097          	auipc	ra,0xffffb
    80008868:	84c080e7          	jalr	-1972(ra) # 0x800030b0
    8000886c:	f8040a13          	addi	s4,s0,-128
    80008870:	000a0613          	mv	a2,s4
    80008874:	00098913          	mv	s2,s3
    80008878:	f95ff06f          	j	0x8000880c
    8000887c:	f8042503          	lw	a0,-128(s0)
    80008880:	00a50713          	addi	a4,a0,10
    80008884:	00471713          	slli	a4,a4,0x4
    80008888:	0001b797          	auipc	a5,0x1b
    8000888c:	30078793          	addi	a5,a5,768 # 0x80023b88
    80008890:	00e786b3          	add	a3,a5,a4
    80008894:	01803633          	snez	a2,s8
    80008898:	00c6a423          	sw	a2,8(a3)
    8000889c:	0006a623          	sw	zero,12(a3)
    800088a0:	01a6b823          	sd	s10,16(a3)
    800088a4:	f6070613          	addi	a2,a4,-160
    800088a8:	0007b683          	ld	a3,0(a5)
    800088ac:	00c686b3          	add	a3,a3,a2
    800088b0:	00870593          	addi	a1,a4,8
    800088b4:	00b785b3          	add	a1,a5,a1
    800088b8:	00b6b023          	sd	a1,0(a3)
    800088bc:	0007b803          	ld	a6,0(a5)
    800088c0:	00c80633          	add	a2,a6,a2
    800088c4:	01000693          	li	a3,16
    800088c8:	00d62423          	sw	a3,8(a2)
    800088cc:	00100593          	li	a1,1
    800088d0:	00b61623          	sh	a1,12(a2)
    800088d4:	f8442683          	lw	a3,-124(s0)
    800088d8:	00d61723          	sh	a3,14(a2)
    800088dc:	00469693          	slli	a3,a3,0x4
    800088e0:	00d80833          	add	a6,a6,a3
    800088e4:	058a8613          	addi	a2,s5,88
    800088e8:	00c83023          	sd	a2,0(a6)
    800088ec:	0007b803          	ld	a6,0(a5)
    800088f0:	00d806b3          	add	a3,a6,a3
    800088f4:	40000613          	li	a2,1024
    800088f8:	00c6a423          	sw	a2,8(a3)
    800088fc:	001c3613          	seqz	a2,s8
    80008900:	0016161b          	slliw	a2,a2,0x1
    80008904:	00166613          	ori	a2,a2,1
    80008908:	00c69623          	sh	a2,12(a3)
    8000890c:	f8842603          	lw	a2,-120(s0)
    80008910:	00c69723          	sh	a2,14(a3)
    80008914:	00250693          	addi	a3,a0,2
    80008918:	00469693          	slli	a3,a3,0x4
    8000891c:	00d786b3          	add	a3,a5,a3
    80008920:	fff00893          	li	a7,-1
    80008924:	01168823          	sb	a7,16(a3)
    80008928:	00461613          	slli	a2,a2,0x4
    8000892c:	00c80833          	add	a6,a6,a2
    80008930:	f9070713          	addi	a4,a4,-112
    80008934:	00e78733          	add	a4,a5,a4
    80008938:	00e83023          	sd	a4,0(a6)
    8000893c:	0007b703          	ld	a4,0(a5)
    80008940:	00c70733          	add	a4,a4,a2
    80008944:	00b72423          	sw	a1,8(a4)
    80008948:	00200613          	li	a2,2
    8000894c:	00c71623          	sh	a2,12(a4)
    80008950:	00071723          	sh	zero,14(a4)
    80008954:	00baa223          	sw	a1,4(s5)
    80008958:	0156b423          	sd	s5,8(a3)
    8000895c:	0087b683          	ld	a3,8(a5)
    80008960:	0026d703          	lhu	a4,2(a3)
    80008964:	00777713          	andi	a4,a4,7
    80008968:	00171713          	slli	a4,a4,0x1
    8000896c:	00e686b3          	add	a3,a3,a4
    80008970:	00a69223          	sh	a0,4(a3)
    80008974:	0ff0000f          	fence
    80008978:	0087b703          	ld	a4,8(a5)
    8000897c:	00275783          	lhu	a5,2(a4)
    80008980:	0017879b          	addiw	a5,a5,1
    80008984:	00f71123          	sh	a5,2(a4)
    80008988:	0ff0000f          	fence
    8000898c:	100017b7          	lui	a5,0x10001
    80008990:	0407a823          	sw	zero,80(a5) # 0x10001050
    80008994:	004aa783          	lw	a5,4(s5)
    80008998:	0001b917          	auipc	s2,0x1b
    8000899c:	31890913          	addi	s2,s2,792 # 0x80023cb0
    800089a0:	00100493          	li	s1,1
    800089a4:	00b79e63          	bne	a5,a1,0x800089c0
    800089a8:	00090593          	mv	a1,s2
    800089ac:	000a8513          	mv	a0,s5
    800089b0:	ffffa097          	auipc	ra,0xffffa
    800089b4:	700080e7          	jalr	1792(ra) # 0x800030b0
    800089b8:	004aa783          	lw	a5,4(s5)
    800089bc:	fe9786e3          	beq	a5,s1,0x800089a8
    800089c0:	f8042903          	lw	s2,-128(s0)
    800089c4:	00290713          	addi	a4,s2,2
    800089c8:	00471713          	slli	a4,a4,0x4
    800089cc:	0001b797          	auipc	a5,0x1b
    800089d0:	1bc78793          	addi	a5,a5,444 # 0x80023b88
    800089d4:	00e787b3          	add	a5,a5,a4
    800089d8:	0007b423          	sd	zero,8(a5)
    800089dc:	0001b997          	auipc	s3,0x1b
    800089e0:	1ac98993          	addi	s3,s3,428 # 0x80023b88
    800089e4:	00491713          	slli	a4,s2,0x4
    800089e8:	0009b783          	ld	a5,0(s3)
    800089ec:	00e787b3          	add	a5,a5,a4
    800089f0:	00c7d483          	lhu	s1,12(a5)
    800089f4:	00090513          	mv	a0,s2
    800089f8:	00e7d903          	lhu	s2,14(a5)
    800089fc:	00000097          	auipc	ra,0x0
    80008a00:	a64080e7          	jalr	-1436(ra) # 0x80008460
    80008a04:	0014f493          	andi	s1,s1,1
    80008a08:	fc049ee3          	bnez	s1,0x800089e4
    80008a0c:	0001b517          	auipc	a0,0x1b
    80008a10:	2a450513          	addi	a0,a0,676 # 0x80023cb0
    80008a14:	ffff8097          	auipc	ra,0xffff8
    80008a18:	77c080e7          	jalr	1916(ra) # 0x80001190
    80008a1c:	07813083          	ld	ra,120(sp)
    80008a20:	07013403          	ld	s0,112(sp)
    80008a24:	06813483          	ld	s1,104(sp)
    80008a28:	06013903          	ld	s2,96(sp)
    80008a2c:	05813983          	ld	s3,88(sp)
    80008a30:	05013a03          	ld	s4,80(sp)
    80008a34:	04813a83          	ld	s5,72(sp)
    80008a38:	04013b03          	ld	s6,64(sp)
    80008a3c:	03813b83          	ld	s7,56(sp)
    80008a40:	03013c03          	ld	s8,48(sp)
    80008a44:	02813c83          	ld	s9,40(sp)
    80008a48:	02013d03          	ld	s10,32(sp)
    80008a4c:	01813d83          	ld	s11,24(sp)
    80008a50:	08010113          	addi	sp,sp,128
    80008a54:	00008067          	ret
    80008a58:	fe010113          	addi	sp,sp,-32
    80008a5c:	00113c23          	sd	ra,24(sp)
    80008a60:	00813823          	sd	s0,16(sp)
    80008a64:	00913423          	sd	s1,8(sp)
    80008a68:	02010413          	addi	s0,sp,32
    80008a6c:	0001b497          	auipc	s1,0x1b
    80008a70:	11c48493          	addi	s1,s1,284 # 0x80023b88
    80008a74:	0001b517          	auipc	a0,0x1b
    80008a78:	23c50513          	addi	a0,a0,572 # 0x80023cb0
    80008a7c:	ffff8097          	auipc	ra,0xffff8
    80008a80:	61c080e7          	jalr	1564(ra) # 0x80001098
    80008a84:	10001737          	lui	a4,0x10001
    80008a88:	06072783          	lw	a5,96(a4) # 0x10001060
    80008a8c:	0037f793          	andi	a5,a5,3
    80008a90:	06f72223          	sw	a5,100(a4)
    80008a94:	0ff0000f          	fence
    80008a98:	0104b783          	ld	a5,16(s1)
    80008a9c:	0204d703          	lhu	a4,32(s1)
    80008aa0:	0027d783          	lhu	a5,2(a5)
    80008aa4:	06f70863          	beq	a4,a5,0x80008b14
    80008aa8:	0ff0000f          	fence
    80008aac:	0104b703          	ld	a4,16(s1)
    80008ab0:	0204d783          	lhu	a5,32(s1)
    80008ab4:	0077f793          	andi	a5,a5,7
    80008ab8:	00379793          	slli	a5,a5,0x3
    80008abc:	00f707b3          	add	a5,a4,a5
    80008ac0:	0047a783          	lw	a5,4(a5)
    80008ac4:	00278713          	addi	a4,a5,2
    80008ac8:	00471713          	slli	a4,a4,0x4
    80008acc:	00e48733          	add	a4,s1,a4
    80008ad0:	01074703          	lbu	a4,16(a4)
    80008ad4:	06071263          	bnez	a4,0x80008b38
    80008ad8:	00278793          	addi	a5,a5,2
    80008adc:	00479793          	slli	a5,a5,0x4
    80008ae0:	00f487b3          	add	a5,s1,a5
    80008ae4:	0087b503          	ld	a0,8(a5)
    80008ae8:	00052223          	sw	zero,4(a0)
    80008aec:	ffffa097          	auipc	ra,0xffffa
    80008af0:	654080e7          	jalr	1620(ra) # 0x80003140
    80008af4:	0204d783          	lhu	a5,32(s1)
    80008af8:	0017879b          	addiw	a5,a5,1
    80008afc:	03079793          	slli	a5,a5,0x30
    80008b00:	0307d793          	srli	a5,a5,0x30
    80008b04:	02f49023          	sh	a5,32(s1)
    80008b08:	0104b703          	ld	a4,16(s1)
    80008b0c:	00275703          	lhu	a4,2(a4)
    80008b10:	f8f71ce3          	bne	a4,a5,0x80008aa8
    80008b14:	0001b517          	auipc	a0,0x1b
    80008b18:	19c50513          	addi	a0,a0,412 # 0x80023cb0
    80008b1c:	ffff8097          	auipc	ra,0xffff8
    80008b20:	674080e7          	jalr	1652(ra) # 0x80001190
    80008b24:	01813083          	ld	ra,24(sp)
    80008b28:	01013403          	ld	s0,16(sp)
    80008b2c:	00813483          	ld	s1,8(sp)
    80008b30:	02010113          	addi	sp,sp,32
    80008b34:	00008067          	ret
    80008b38:	00002517          	auipc	a0,0x2
    80008b3c:	e3050513          	addi	a0,a0,-464 # 0x8000a968
    80008b40:	ffff8097          	auipc	ra,0xffff8
    80008b44:	f40080e7          	jalr	-192(ra) # 0x80000a80
	...
    80009000:	14051073          	csrw	sscratch,a0
    80009004:	02000537          	lui	a0,0x2000
    80009008:	fff5051b          	addiw	a0,a0,-1 # 0x1ffffff
    8000900c:	00d51513          	slli	a0,a0,0xd
    80009010:	02153423          	sd	ra,40(a0)
    80009014:	02253823          	sd	sp,48(a0)
    80009018:	02353c23          	sd	gp,56(a0)
    8000901c:	04453023          	sd	tp,64(a0)
    80009020:	04553423          	sd	t0,72(a0)
    80009024:	04653823          	sd	t1,80(a0)
    80009028:	04753c23          	sd	t2,88(a0)
    8000902c:	06853023          	sd	s0,96(a0)
    80009030:	06953423          	sd	s1,104(a0)
    80009034:	06b53c23          	sd	a1,120(a0)
    80009038:	08c53023          	sd	a2,128(a0)
    8000903c:	08d53423          	sd	a3,136(a0)
    80009040:	08e53823          	sd	a4,144(a0)
    80009044:	08f53c23          	sd	a5,152(a0)
    80009048:	0b053023          	sd	a6,160(a0)
    8000904c:	0b153423          	sd	a7,168(a0)
    80009050:	0b253823          	sd	s2,176(a0)
    80009054:	0b353c23          	sd	s3,184(a0)
    80009058:	0d453023          	sd	s4,192(a0)
    8000905c:	0d553423          	sd	s5,200(a0)
    80009060:	0d653823          	sd	s6,208(a0)
    80009064:	0d753c23          	sd	s7,216(a0)
    80009068:	0f853023          	sd	s8,224(a0)
    8000906c:	0f953423          	sd	s9,232(a0)
    80009070:	0fa53823          	sd	s10,240(a0)
    80009074:	0fb53c23          	sd	s11,248(a0)
    80009078:	11c53023          	sd	t3,256(a0)
    8000907c:	11d53423          	sd	t4,264(a0)
    80009080:	11e53823          	sd	t5,272(a0)
    80009084:	11f53c23          	sd	t6,280(a0)
    80009088:	140022f3          	csrr	t0,sscratch
    8000908c:	06553823          	sd	t0,112(a0)
    80009090:	00853103          	ld	sp,8(a0)
    80009094:	02053203          	ld	tp,32(a0)
    80009098:	01053283          	ld	t0,16(a0)
    8000909c:	00053303          	ld	t1,0(a0)
    800090a0:	12000073          	sfence.vma
    800090a4:	18031073          	csrw	satp,t1
    800090a8:	12000073          	sfence.vma
    800090ac:	000280e7          	jalr	t0
    800090b0:	12000073          	sfence.vma
    800090b4:	18051073          	csrw	satp,a0
    800090b8:	12000073          	sfence.vma
    800090bc:	02000537          	lui	a0,0x2000
    800090c0:	fff5051b          	addiw	a0,a0,-1 # 0x1ffffff
    800090c4:	00d51513          	slli	a0,a0,0xd
    800090c8:	02853083          	ld	ra,40(a0)
    800090cc:	03053103          	ld	sp,48(a0)
    800090d0:	03853183          	ld	gp,56(a0)
    800090d4:	04053203          	ld	tp,64(a0)
    800090d8:	04853283          	ld	t0,72(a0)
    800090dc:	05053303          	ld	t1,80(a0)
    800090e0:	05853383          	ld	t2,88(a0)
    800090e4:	06053403          	ld	s0,96(a0)
    800090e8:	06853483          	ld	s1,104(a0)
    800090ec:	07853583          	ld	a1,120(a0)
    800090f0:	08053603          	ld	a2,128(a0)
    800090f4:	08853683          	ld	a3,136(a0)
    800090f8:	09053703          	ld	a4,144(a0)
    800090fc:	09853783          	ld	a5,152(a0)
    80009100:	0a053803          	ld	a6,160(a0)
    80009104:	0a853883          	ld	a7,168(a0)
    80009108:	0b053903          	ld	s2,176(a0)
    8000910c:	0b853983          	ld	s3,184(a0)
    80009110:	0c053a03          	ld	s4,192(a0)
    80009114:	0c853a83          	ld	s5,200(a0)
    80009118:	0d053b03          	ld	s6,208(a0)
    8000911c:	0d853b83          	ld	s7,216(a0)
    80009120:	0e053c03          	ld	s8,224(a0)
    80009124:	0e853c83          	ld	s9,232(a0)
    80009128:	0f053d03          	ld	s10,240(a0)
    8000912c:	0f853d83          	ld	s11,248(a0)
    80009130:	10053e03          	ld	t3,256(a0)
    80009134:	10853e83          	ld	t4,264(a0)
    80009138:	11053f03          	ld	t5,272(a0)
    8000913c:	11853f83          	ld	t6,280(a0)
    80009140:	07053503          	ld	a0,112(a0)
    80009144:	10200073          	sret
	...
    8000a000:	4fa5                	li	t6,9
    8000a002:	a4fa                	fsd	ft10,72(sp)
    8000a004:	4fa4fa4f          	.4byte	0x4fa4fa4f
	...
    8000a010:	736e6f63          	bltu	t3,s6,0x8000a74e
    8000a014:	0000                	unimp
    8000a016:	0000                	unimp
    8000a018:	6e28                	ld	a0,88(a2)
    8000a01a:	6c75                	lui	s8,0x1d
    8000a01c:	296c                	fld	fa1,208(a0)
    8000a01e:	0000                	unimp
    8000a020:	6170                	ld	a2,192(a0)
    8000a022:	696e                	ld	s2,216(sp)
    8000a024:	00203a63          	.4byte	0x203a63
    8000a028:	7325                	lui	t1,0xfffe9
    8000a02a:	000a                	c.slli	zero,0x2
    8000a02c:	0000                	unimp
    8000a02e:	0000                	unimp
    8000a030:	7270                	ld	a2,224(a2)
    8000a032:	0000                	unimp
    8000a034:	0000                	unimp
    8000a036:	0000                	unimp
    8000a038:	3130                	fld	fa2,96(a0)
    8000a03a:	3332                	fld	ft6,296(sp)
    8000a03c:	3534                	fld	fa3,104(a0)
    8000a03e:	3736                	fld	fa4,360(sp)
    8000a040:	3938                	fld	fa4,112(a0)
    8000a042:	6261                	lui	tp,0x18
    8000a044:	66656463          	bltu	a0,t1,0x8000a6ac
	...
    8000a050:	6175                	addi	sp,sp,368
    8000a052:	7472                	ld	s0,312(sp)
    8000a054:	0000                	unimp
    8000a056:	0000                	unimp
    8000a058:	6572666b          	.4byte	0x6572666b
    8000a05c:	0065                	c.nop	25
    8000a05e:	0000                	unimp
    8000a060:	6d656d6b          	.4byte	0x6d656d6b
    8000a064:	0000                	unimp
    8000a066:	0000                	unimp
    8000a068:	6361                	lui	t1,0x18
    8000a06a:	7571                	lui	a0,0xffffc
    8000a06c:	7269                	lui	tp,0xffffa
    8000a06e:	0065                	c.nop	25
    8000a070:	6f70                	ld	a2,216(a4)
    8000a072:	5f70                	lw	a2,124(a4)
    8000a074:	2066666f          	jal	a2,0x8007027a
    8000a078:	202d                	.2byte	0x202d
    8000a07a:	6e69                	lui	t3,0x1a
    8000a07c:	6574                	ld	a3,200(a0)
    8000a07e:	7272                	ld	tp,312(sp)
    8000a080:	7075                	c.lui	zero,0xffffd
    8000a082:	6974                	ld	a3,208(a0)
    8000a084:	6c62                	ld	s8,24(sp)
    8000a086:	0065                	c.nop	25
    8000a088:	6f70                	ld	a2,216(a4)
    8000a08a:	5f70                	lw	a2,124(a4)
    8000a08c:	0066666f          	jal	a2,0x80070092
    8000a090:	6572                	ld	a0,280(sp)
    8000a092:	656c                	ld	a1,200(a0)
    8000a094:	7361                	lui	t1,0xffff8
    8000a096:	0065                	c.nop	25
    8000a098:	7678                	ld	a4,232(a2)
    8000a09a:	2036                	fld	ft0,328(sp)
    8000a09c:	6e72656b          	.4byte	0x6e72656b
    8000a0a0:	6c65                	lui	s8,0x19
    8000a0a2:	6920                	ld	s0,80(a0)
    8000a0a4:	6f622073          	csrs	0x6f6,tp
    8000a0a8:	6e69746f          	jal	s0,0x800a178e
    8000a0ac:	00000a67          	jalr	s4,zero # 0x0
    8000a0b0:	696e696b          	.4byte	0x696e696b
    8000a0b4:	2074                	fld	fa3,192(s0)
    8000a0b6:	72617473          	csrrci	s0,0x726,2
    8000a0ba:	2074                	fld	fa3,192(s0)
    8000a0bc:	000a                	c.slli	zero,0x2
    8000a0be:	0000                	unimp
    8000a0c0:	696e696b          	.4byte	0x696e696b
    8000a0c4:	2074                	fld	fa3,192(s0)
    8000a0c6:	6966                	ld	s2,88(sp)
    8000a0c8:	696e                	ld	s2,216(sp)
    8000a0ca:	000a6873          	csrrsi	a6,ustatus,20
    8000a0ce:	0000                	unimp
    8000a0d0:	696d766b          	.4byte	0x696d766b
    8000a0d4:	696e                	ld	s2,216(sp)
    8000a0d6:	2074                	fld	fa3,192(s0)
    8000a0d8:	72617473          	csrrci	s0,0x726,2
    8000a0dc:	2074                	fld	fa3,192(s0)
    8000a0de:	000a                	c.slli	zero,0x2
    8000a0e0:	696d766b          	.4byte	0x696d766b
    8000a0e4:	696e                	ld	s2,216(sp)
    8000a0e6:	6874                	ld	a3,208(s0)
    8000a0e8:	7261                	lui	tp,0xffff8
    8000a0ea:	2074                	fld	fa3,192(s0)
    8000a0ec:	72617473          	csrrci	s0,0x726,2
    8000a0f0:	2074                	fld	fa3,192(s0)
    8000a0f2:	000a                	c.slli	zero,0x2
    8000a0f4:	0000                	unimp
    8000a0f6:	0000                	unimp
    8000a0f8:	7270                	ld	a2,224(a2)
    8000a0fa:	6e69636f          	jal	t1,0x800a07e0
    8000a0fe:	7469                	lui	s0,0xffffa
    8000a100:	7320                	ld	s0,96(a4)
    8000a102:	6174                	ld	a3,192(a0)
    8000a104:	7472                	ld	s0,312(sp)
    8000a106:	0a20                	addi	s0,sp,280
	...
    8000a110:	7274                	ld	a3,224(a2)
    8000a112:	7061                	c.lui	zero,0xffff8
    8000a114:	6e69                	lui	t3,0x1a
    8000a116:	7469                	lui	s0,0xffffa
    8000a118:	7320                	ld	s0,96(a4)
    8000a11a:	6174                	ld	a3,192(a0)
    8000a11c:	7472                	ld	s0,312(sp)
    8000a11e:	0a20                	addi	s0,sp,280
	...
    8000a128:	7274                	ld	a3,224(a2)
    8000a12a:	7061                	c.lui	zero,0xffff8
    8000a12c:	6e69                	lui	t3,0x1a
    8000a12e:	7469                	lui	s0,0xffffa
    8000a130:	6168                	ld	a0,192(a0)
    8000a132:	7472                	ld	s0,312(sp)
    8000a134:	7320                	ld	s0,96(a4)
    8000a136:	6174                	ld	a3,192(a0)
    8000a138:	7472                	ld	s0,312(sp)
    8000a13a:	0a20                	addi	s0,sp,280
    8000a13c:	0000                	unimp
    8000a13e:	0000                	unimp
    8000a140:	6c70                	ld	a2,216(s0)
    8000a142:	6369                	lui	t1,0x1a
    8000a144:	6e69                	lui	t3,0x1a
    8000a146:	7469                	lui	s0,0xffffa
    8000a148:	7320                	ld	s0,96(a4)
    8000a14a:	6174                	ld	a3,192(a0)
    8000a14c:	7472                	ld	s0,312(sp)
    8000a14e:	0a20                	addi	s0,sp,280
	...
    8000a158:	6c70                	ld	a2,216(s0)
    8000a15a:	6369                	lui	t1,0x1a
    8000a15c:	6e69                	lui	t3,0x1a
    8000a15e:	7469                	lui	s0,0xffffa
    8000a160:	6168                	ld	a0,192(a0)
    8000a162:	7472                	ld	s0,312(sp)
    8000a164:	7320                	ld	s0,96(a4)
    8000a166:	6174                	ld	a3,192(a0)
    8000a168:	7472                	ld	s0,312(sp)
    8000a16a:	0a20                	addi	s0,sp,280
    8000a16c:	0000                	unimp
    8000a16e:	0000                	unimp
    8000a170:	6962                	ld	s2,24(sp)
    8000a172:	696e                	ld	s2,216(sp)
    8000a174:	2074                	fld	fa3,192(s0)
    8000a176:	72617473          	csrrci	s0,0x726,2
    8000a17a:	2074                	fld	fa3,192(s0)
    8000a17c:	000a                	c.slli	zero,0x2
    8000a17e:	0000                	unimp
    8000a180:	6969                	lui	s2,0x1a
    8000a182:	696e                	ld	s2,216(sp)
    8000a184:	2074                	fld	fa3,192(s0)
    8000a186:	72617473          	csrrci	s0,0x726,2
    8000a18a:	2074                	fld	fa3,192(s0)
    8000a18c:	000a                	c.slli	zero,0x2
    8000a18e:	0000                	unimp
    8000a190:	6966                	ld	s2,88(sp)
    8000a192:	656c                	ld	a1,200(a0)
    8000a194:	6e69                	lui	t3,0x1a
    8000a196:	7469                	lui	s0,0xffffa
    8000a198:	7320                	ld	s0,96(a4)
    8000a19a:	6174                	ld	a3,192(a0)
    8000a19c:	7472                	ld	s0,312(sp)
    8000a19e:	0a20                	addi	s0,sp,280
	...
    8000a1a8:	6976                	ld	s2,344(sp)
    8000a1aa:	7472                	ld	s0,312(sp)
    8000a1ac:	6f69                	lui	t5,0x1a
    8000a1ae:	645f 7369 5f6b      	.byte	0x5f, 0x64, 0x69, 0x73, 0x6b, 0x5f
    8000a1b4:	6e69                	lui	t3,0x1a
    8000a1b6:	7469                	lui	s0,0xffffa
    8000a1b8:	7320                	ld	s0,96(a4)
    8000a1ba:	6174                	ld	a3,192(a0)
    8000a1bc:	7472                	ld	s0,312(sp)
    8000a1be:	0a20                	addi	s0,sp,280
	...
    8000a1c8:	7375                	lui	t1,0xffffd
    8000a1ca:	7265                	lui	tp,0xffff9
    8000a1cc:	6e69                	lui	t3,0x1a
    8000a1ce:	7469                	lui	s0,0xffffa
    8000a1d0:	7320                	ld	s0,96(a4)
    8000a1d2:	6174                	ld	a3,192(a0)
    8000a1d4:	7472                	ld	s0,312(sp)
    8000a1d6:	0a20                	addi	s0,sp,280
	...
    8000a1e0:	5f5f 7973 636e      	.byte	0x5f, 0x5f, 0x73, 0x79, 0x6e, 0x63
    8000a1e6:	735f 6e79 6863      	.byte	0x5f, 0x73, 0x79, 0x6e, 0x63, 0x68
    8000a1ec:	6f72                	ld	t5,280(sp)
    8000a1ee:	696e                	ld	s2,216(sp)
    8000a1f0:	657a                	ld	a0,408(sp)
    8000a1f2:	7320                	ld	s0,96(a4)
    8000a1f4:	6174                	ld	a3,192(a0)
    8000a1f6:	7472                	ld	s0,312(sp)
    8000a1f8:	0a20                	addi	s0,sp,280
    8000a1fa:	0000                	unimp
    8000a1fc:	0000                	unimp
    8000a1fe:	0000                	unimp
    8000a200:	6168                	ld	a0,192(a0)
    8000a202:	7472                	ld	s0,312(sp)
    8000a204:	2520                	fld	fs0,72(a0)
    8000a206:	2064                	fld	fs1,192(s0)
    8000a208:	72617473          	csrrci	s0,0x726,2
    8000a20c:	6974                	ld	a3,208(a0)
    8000a20e:	676e                	ld	a4,216(sp)
    8000a210:	000a                	c.slli	zero,0x2
    8000a212:	0000                	unimp
    8000a214:	0000                	unimp
    8000a216:	0000                	unimp
    8000a218:	6b6c6177          	.4byte	0x6b6c6177
    8000a21c:	0000                	unimp
    8000a21e:	0000                	unimp
    8000a220:	616d                	addi	sp,sp,240
    8000a222:	7070                	ld	a2,224(s0)
    8000a224:	6761                	lui	a4,0x18
    8000a226:	7365                	lui	t1,0xffff9
    8000a228:	203a                	fld	ft0,392(sp)
    8000a22a:	6176                	ld	sp,344(sp)
    8000a22c:	6e20                	ld	s0,88(a2)
    8000a22e:	6120746f          	jal	s0,0x80011840
    8000a232:	696c                	ld	a1,208(a0)
    8000a234:	64656e67          	.4byte	0x64656e67
	...
    8000a240:	616d                	addi	sp,sp,240
    8000a242:	7070                	ld	a2,224(s0)
    8000a244:	6761                	lui	a4,0x18
    8000a246:	7365                	lui	t1,0xffff9
    8000a248:	203a                	fld	ft0,392(sp)
    8000a24a:	657a6973          	csrrsi	s2,0x657,20
    8000a24e:	6e20                	ld	s0,88(a2)
    8000a250:	6120746f          	jal	s0,0x80011862
    8000a254:	696c                	ld	a1,208(a0)
    8000a256:	64656e67          	.4byte	0x64656e67
    8000a25a:	0000                	unimp
    8000a25c:	0000                	unimp
    8000a25e:	0000                	unimp
    8000a260:	616d                	addi	sp,sp,240
    8000a262:	7070                	ld	a2,224(s0)
    8000a264:	6761                	lui	a4,0x18
    8000a266:	7365                	lui	t1,0xffff9
    8000a268:	203a                	fld	ft0,392(sp)
    8000a26a:	657a6973          	csrrsi	s2,0x657,20
    8000a26e:	0000                	unimp
    8000a270:	616d                	addi	sp,sp,240
    8000a272:	7070                	ld	a2,224(s0)
    8000a274:	6761                	lui	a4,0x18
    8000a276:	7365                	lui	t1,0xffff9
    8000a278:	203a                	fld	ft0,392(sp)
    8000a27a:	6572                	ld	a0,280(sp)
    8000a27c:	616d                	addi	sp,sp,240
    8000a27e:	0070                	addi	a2,sp,12
    8000a280:	6d6d766b          	.4byte	0x6d6d766b
    8000a284:	7061                	c.lui	zero,0xffff8
    8000a286:	0000                	unimp
    8000a288:	696d766b          	.4byte	0x696d766b
    8000a28c:	696e                	ld	s2,216(sp)
    8000a28e:	2074                	fld	fa3,192(s0)
    8000a290:	6972                	ld	s2,280(sp)
    8000a292:	0a746867          	.4byte	0xa746867
    8000a296:	0000                	unimp
    8000a298:	7675                	lui	a2,0xffffd
    8000a29a:	756d                	lui	a0,0xffffb
    8000a29c:	6d6e                	ld	s10,216(sp)
    8000a29e:	7061                	c.lui	zero,0xffff8
    8000a2a0:	203a                	fld	ft0,392(sp)
    8000a2a2:	6f6e                	ld	t5,216(sp)
    8000a2a4:	2074                	fld	fa3,192(s0)
    8000a2a6:	6c61                	lui	s8,0x18
    8000a2a8:	6769                	lui	a4,0x1a
    8000a2aa:	656e                	ld	a0,216(sp)
    8000a2ac:	0064                	addi	s1,sp,12
    8000a2ae:	0000                	unimp
    8000a2b0:	7266                	ld	tp,120(sp)
    8000a2b2:	6565                	lui	a0,0x19
    8000a2b4:	6b6c6177          	.4byte	0x6b6c6177
    8000a2b8:	203a                	fld	ft0,392(sp)
    8000a2ba:	656c                	ld	a1,200(a0)
    8000a2bc:	6661                	lui	a2,0x18
    8000a2be:	0000                	unimp
    8000a2c0:	7675                	lui	a2,0xffffd
    8000a2c2:	636d                	lui	t1,0x1b
    8000a2c4:	656c                	ld	a1,200(a0)
    8000a2c6:	7261                	lui	tp,0xffff8
	...
    8000a2d0:	6c6c616b          	.4byte	0x6c6c616b
    8000a2d4:	0000636f          	jal	t1,0x800102d4
    8000a2d8:	656e                	ld	a0,216(sp)
    8000a2da:	7478                	ld	a4,232(s0)
    8000a2dc:	6970                	ld	a2,208(a0)
    8000a2de:	0064                	addi	s1,sp,12
    8000a2e0:	74696177          	.4byte	0x74696177
    8000a2e4:	6c5f 636f 006b      	.byte	0x5f, 0x6c, 0x6f, 0x63, 0x6b, 0x00
    8000a2ea:	0000                	unimp
    8000a2ec:	0000                	unimp
    8000a2ee:	0000                	unimp
    8000a2f0:	7270                	ld	a2,224(a2)
    8000a2f2:	0000636f          	jal	t1,0x800102f2
    8000a2f6:	0000                	unimp
    8000a2f8:	696e692f          	.4byte	0x696e692f
    8000a2fc:	0074                	addi	a3,sp,12
    8000a2fe:	0000                	unimp
    8000a300:	7865                	lui	a6,0xffff9
    8000a302:	6365                	lui	t1,0x19
    8000a304:	0000                	unimp
    8000a306:	0000                	unimp
    8000a308:	0000002f          	.4byte	0x2f
    8000a30c:	0000                	unimp
    8000a30e:	0000                	unimp
    8000a310:	65686373          	csrrsi	t1,0x656,16
    8000a314:	2064                	fld	fs1,192(s0)
    8000a316:	2d70                	fld	fa2,216(a0)
    8000a318:	6c3e                	ld	s8,456(sp)
    8000a31a:	006b636f          	jal	t1,0x800c0320
    8000a31e:	0000                	unimp
    8000a320:	65686373          	csrrsi	t1,0x656,16
    8000a324:	2064                	fld	fs1,192(s0)
    8000a326:	6f6c                	ld	a1,216(a4)
    8000a328:	00736b63          	bltu	t1,t2,0x8000a33e
    8000a32c:	0000                	unimp
    8000a32e:	0000                	unimp
    8000a330:	65686373          	csrrsi	t1,0x656,16
    8000a334:	2064                	fld	fs1,192(s0)
    8000a336:	5552                	lw	a0,52(sp)
    8000a338:	4e4e                	lw	t3,208(sp)
    8000a33a:	4e49                	li	t3,18
    8000a33c:	00000047          	fmsub.s	ft0,ft0,ft0,ft0,rne
    8000a340:	65686373          	csrrsi	t1,0x656,16
    8000a344:	2064                	fld	fs1,192(s0)
    8000a346:	6e69                	lui	t3,0x1a
    8000a348:	6574                	ld	a3,200(a0)
    8000a34a:	7272                	ld	tp,312(sp)
    8000a34c:	7075                	c.lui	zero,0xffffd
    8000a34e:	6974                	ld	a3,208(a0)
    8000a350:	6c62                	ld	s8,24(sp)
    8000a352:	0065                	c.nop	25
    8000a354:	0000                	unimp
    8000a356:	0000                	unimp
    8000a358:	6e69                	lui	t3,0x1a
    8000a35a:	7469                	lui	s0,0xffffa
    8000a35c:	6520                	ld	s0,72(a0)
    8000a35e:	6978                	ld	a4,208(a0)
    8000a360:	6974                	ld	a3,208(a0)
    8000a362:	676e                	ld	a4,216(sp)
    8000a364:	0000                	unimp
    8000a366:	0000                	unimp
    8000a368:	6f7a                	ld	t5,408(sp)
    8000a36a:	626d                	lui	tp,0x1b
    8000a36c:	6569                	lui	a0,0x1a
    8000a36e:	6520                	ld	s0,72(a0)
    8000a370:	6978                	ld	a4,208(a0)
    8000a372:	0074                	addi	a3,sp,12
    8000a374:	0000                	unimp
    8000a376:	0000                	unimp
    8000a378:	003f3f3f 00000000 	.8byte	0x3f3f3f
    8000a380:	6425                	lui	s0,0x9
    8000a382:	2520                	fld	fs0,72(a0)
    8000a384:	73252073          	csrs	0x732,a0
	...
    8000a390:	6e75                	lui	t3,0x1d
    8000a392:	7375                	lui	t1,0xffffd
    8000a394:	6465                	lui	s0,0x19
    8000a396:	0000                	unimp
    8000a398:	7375                	lui	t1,0xffffd
    8000a39a:	6465                	lui	s0,0x19
    8000a39c:	0000                	unimp
    8000a39e:	0000                	unimp
    8000a3a0:	65656c73          	csrrsi	s8,0x656,10
    8000a3a4:	2070                	fld	fa2,192(s0)
    8000a3a6:	0000                	unimp
    8000a3a8:	7572                	ld	a0,312(sp)
    8000a3aa:	626e                	ld	tp,216(sp)
    8000a3ac:	656c                	ld	a1,200(a0)
    8000a3ae:	0000                	unimp
    8000a3b0:	7572                	ld	a0,312(sp)
    8000a3b2:	206e                	fld	ft0,216(sp)
    8000a3b4:	2020                	fld	fs0,64(s0)
    8000a3b6:	0000                	unimp
    8000a3b8:	6f7a                	ld	t5,408(sp)
    8000a3ba:	626d                	lui	tp,0x1b
    8000a3bc:	6569                	lui	a0,0x1a
    8000a3be:	0000                	unimp
    8000a3c0:	a390                	fsd	fa2,0(a5)
    8000a3c2:	8000                	.2byte	0x8000
    8000a3c4:	0000                	unimp
    8000a3c6:	0000                	unimp
    8000a3c8:	a398                	fsd	fa4,0(a5)
    8000a3ca:	8000                	.2byte	0x8000
    8000a3cc:	0000                	unimp
    8000a3ce:	0000                	unimp
    8000a3d0:	a3a0                	fsd	fs0,64(a5)
    8000a3d2:	8000                	.2byte	0x8000
    8000a3d4:	0000                	unimp
    8000a3d6:	0000                	unimp
    8000a3d8:	a3a8                	fsd	fa0,64(a5)
    8000a3da:	8000                	.2byte	0x8000
    8000a3dc:	0000                	unimp
    8000a3de:	0000                	unimp
    8000a3e0:	a3b0                	fsd	fa2,64(a5)
    8000a3e2:	8000                	.2byte	0x8000
    8000a3e4:	0000                	unimp
    8000a3e6:	0000                	unimp
    8000a3e8:	a3b8                	fsd	fa4,64(a5)
    8000a3ea:	8000                	.2byte	0x8000
    8000a3ec:	0000                	unimp
    8000a3ee:	0000                	unimp
    8000a3f0:	6974                	ld	a3,208(a0)
    8000a3f2:	656d                	lui	a0,0x1b
    8000a3f4:	0000                	unimp
    8000a3f6:	0000                	unimp
    8000a3f8:	6e75                	lui	t3,0x1d
    8000a3fa:	7865                	lui	a6,0xffff9
    8000a3fc:	6570                	ld	a2,200(a0)
    8000a3fe:	64657463          	bgeu	a0,t1,0x8000aa46
    8000a402:	6920                	ld	s0,80(a0)
    8000a404:	746e                	ld	s0,248(sp)
    8000a406:	7265                	lui	tp,0xffff9
    8000a408:	7572                	ld	a0,312(sp)
    8000a40a:	7470                	ld	a2,232(s0)
    8000a40c:	6920                	ld	s0,80(a0)
    8000a40e:	7172                	ld	sp,312(sp)
    8000a410:	253d                	addiw	a0,a0,15 # 0x1b00f
    8000a412:	0a64                	addi	s1,sp,284
    8000a414:	0000                	unimp
    8000a416:	0000                	unimp
    8000a418:	7375                	lui	t1,0xffffd
    8000a41a:	7265                	lui	tp,0xffff9
    8000a41c:	7274                	ld	a3,224(a2)
    8000a41e:	7061                	c.lui	zero,0xffff8
    8000a420:	203a                	fld	ft0,392(sp)
    8000a422:	6f6e                	ld	t5,216(sp)
    8000a424:	2074                	fld	fa3,192(s0)
    8000a426:	7266                	ld	tp,120(sp)
    8000a428:	75206d6f          	jal	s10,0x80010b7a
    8000a42c:	20726573          	csrrsi	a0,0x207,4
    8000a430:	6f6d                	lui	t5,0x1b
    8000a432:	6564                	ld	s1,200(a0)
    8000a434:	0000                	unimp
    8000a436:	0000                	unimp
    8000a438:	7375                	lui	t1,0xffffd
    8000a43a:	7265                	lui	tp,0xffff9
    8000a43c:	7274                	ld	a3,224(a2)
    8000a43e:	7061                	c.lui	zero,0xffff8
    8000a440:	2928                	fld	fa0,80(a0)
    8000a442:	203a                	fld	ft0,392(sp)
    8000a444:	6e75                	lui	t3,0x1d
    8000a446:	7865                	lui	a6,0xffff9
    8000a448:	6570                	ld	a2,200(a0)
    8000a44a:	64657463          	bgeu	a0,t1,0x8000aa92
    8000a44e:	7320                	ld	s0,96(a4)
    8000a450:	73756163          	bltu	a0,s7,0x8000ab72
    8000a454:	2065                	.2byte	0x2065
    8000a456:	7830                	ld	a2,112(s0)
    8000a458:	6c25                	lui	s8,0x9
    8000a45a:	2078                	fld	fa4,192(s0)
    8000a45c:	6970                	ld	a2,208(a0)
    8000a45e:	3d64                	fld	fs1,248(a0)
    8000a460:	6425                	lui	s0,0x9
    8000a462:	000a                	c.slli	zero,0x2
    8000a464:	0000                	unimp
    8000a466:	0000                	unimp
    8000a468:	2020                	fld	fs0,64(s0)
    8000a46a:	2020                	fld	fs0,64(s0)
    8000a46c:	2020                	fld	fs0,64(s0)
    8000a46e:	2020                	fld	fs0,64(s0)
    8000a470:	2020                	fld	fs0,64(s0)
    8000a472:	2020                	fld	fs0,64(s0)
    8000a474:	63706573          	csrrsi	a0,0x637,0
    8000a478:	303d                	.2byte	0x303d
    8000a47a:	2578                	fld	fa4,200(a0)
    8000a47c:	786c                	ld	a1,240(s0)
    8000a47e:	7320                	ld	s0,96(a4)
    8000a480:	7674                	ld	a3,232(a2)
    8000a482:	6c61                	lui	s8,0x18
    8000a484:	303d                	.2byte	0x303d
    8000a486:	2578                	fld	fa4,200(a0)
    8000a488:	786c                	ld	a1,240(s0)
    8000a48a:	000a                	c.slli	zero,0x2
    8000a48c:	0000                	unimp
    8000a48e:	0000                	unimp
    8000a490:	6e72656b          	.4byte	0x6e72656b
    8000a494:	6c65                	lui	s8,0x19
    8000a496:	7274                	ld	a3,224(a2)
    8000a498:	7061                	c.lui	zero,0xffff8
    8000a49a:	203a                	fld	ft0,392(sp)
    8000a49c:	6f6e                	ld	t5,216(sp)
    8000a49e:	2074                	fld	fa3,192(s0)
    8000a4a0:	7266                	ld	tp,120(sp)
    8000a4a2:	73206d6f          	jal	s10,0x80010bd4
    8000a4a6:	7075                	c.lui	zero,0xffffd
    8000a4a8:	7265                	lui	tp,0xffff9
    8000a4aa:	6976                	ld	s2,344(sp)
    8000a4ac:	20726f73          	csrrsi	t5,0x207,4
    8000a4b0:	6f6d                	lui	t5,0x1b
    8000a4b2:	6564                	ld	s1,200(a0)
    8000a4b4:	0000                	unimp
    8000a4b6:	0000                	unimp
    8000a4b8:	6e72656b          	.4byte	0x6e72656b
    8000a4bc:	6c65                	lui	s8,0x19
    8000a4be:	7274                	ld	a3,224(a2)
    8000a4c0:	7061                	c.lui	zero,0xffff8
    8000a4c2:	203a                	fld	ft0,392(sp)
    8000a4c4:	6e69                	lui	t3,0x1a
    8000a4c6:	6574                	ld	a3,200(a0)
    8000a4c8:	7272                	ld	tp,312(sp)
    8000a4ca:	7075                	c.lui	zero,0xffffd
    8000a4cc:	7374                	ld	a3,224(a4)
    8000a4ce:	6520                	ld	s0,72(a0)
    8000a4d0:	616e                	ld	sp,216(sp)
    8000a4d2:	6c62                	ld	s8,24(sp)
    8000a4d4:	6465                	lui	s0,0x19
    8000a4d6:	0000                	unimp
    8000a4d8:	75616373          	csrrsi	t1,0x756,2
    8000a4dc:	303d6573          	csrrsi	a0,mideleg,26
    8000a4e0:	2578                	fld	fa4,200(a0)
    8000a4e2:	786c                	ld	a1,240(s0)
    8000a4e4:	7320                	ld	s0,96(a4)
    8000a4e6:	7065                	c.lui	zero,0xffff9
    8000a4e8:	78303d63          	.4byte	0x78303d63
    8000a4ec:	6c25                	lui	s8,0x9
    8000a4ee:	2078                	fld	fa4,192(s0)
    8000a4f0:	61767473          	csrrci	s0,0x617,12
    8000a4f4:	3d6c                	fld	fa1,248(a0)
    8000a4f6:	7830                	ld	a2,112(s0)
    8000a4f8:	6c25                	lui	s8,0x9
    8000a4fa:	0a78                	addi	a4,sp,284
    8000a4fc:	0000                	unimp
    8000a4fe:	0000                	unimp
    8000a500:	6e72656b          	.4byte	0x6e72656b
    8000a504:	6c65                	lui	s8,0x19
    8000a506:	7274                	ld	a3,224(a2)
    8000a508:	7061                	c.lui	zero,0xffff8
    8000a50a:	0000                	unimp
    8000a50c:	0000                	unimp
    8000a50e:	0000                	unimp
    8000a510:	7261                	lui	tp,0xffff8
    8000a512:	77617267          	.4byte	0x77617267
    8000a516:	0000                	unimp
    8000a518:	6425                	lui	s0,0x9
    8000a51a:	2520                	fld	fs0,72(a0)
    8000a51c:	75203a73          	csrrc	s4,0x752,zero
    8000a520:	6b6e                	ld	s6,216(sp)
    8000a522:	6f6e                	ld	t5,216(sp)
    8000a524:	73206e77          	.4byte	0x73206e77
    8000a528:	7379                	lui	t1,0xffffe
    8000a52a:	6320                	ld	s0,64(a4)
    8000a52c:	6c61                	lui	s8,0x18
    8000a52e:	206c                	fld	fa1,192(s0)
    8000a530:	6425                	lui	s0,0x9
    8000a532:	000a                	c.slli	zero,0x2
    8000a534:	0000                	unimp
    8000a536:	0000                	unimp
    8000a538:	98a8                	.2byte	0x98a8
    8000a53a:	ffff                	.2byte	0xffff
    8000a53c:	98c4                	.2byte	0x98c4
    8000a53e:	ffff                	.2byte	0xffff
    8000a540:	98d0                	.2byte	0x98d0
    8000a542:	ffff                	.2byte	0xffff
    8000a544:	98dc                	.2byte	0x98dc
    8000a546:	ffff                	.2byte	0xffff
    8000a548:	98e8                	.2byte	0x98e8
    8000a54a:	ffff                	.2byte	0xffff
    8000a54c:	98f4                	.2byte	0x98f4
    8000a54e:	ffff                	.2byte	0xffff
	...
    8000a558:	4114                	lw	a3,0(a0)
    8000a55a:	8000                	.2byte	0x8000
    8000a55c:	0000                	unimp
    8000a55e:	0000                	unimp
    8000a560:	40a8                	lw	a0,64(s1)
    8000a562:	8000                	.2byte	0x8000
    8000a564:	0000                	unimp
    8000a566:	0000                	unimp
    8000a568:	413c                	lw	a5,64(a0)
    8000a56a:	8000                	.2byte	0x8000
    8000a56c:	0000                	unimp
    8000a56e:	0000                	unimp
    8000a570:	8188                	.2byte	0x8188
    8000a572:	8000                	.2byte	0x8000
    8000a574:	0000                	unimp
    8000a576:	0000                	unimp
    8000a578:	7694                	ld	a3,40(a3)
    8000a57a:	8000                	.2byte	0x8000
    8000a57c:	0000                	unimp
    8000a57e:	0000                	unimp
    8000a580:	4310                	lw	a2,0(a4)
    8000a582:	8000                	.2byte	0x8000
    8000a584:	0000                	unimp
    8000a586:	0000                	unimp
    8000a588:	8020                	.2byte	0x8020
    8000a58a:	8000                	.2byte	0x8000
    8000a58c:	0000                	unimp
    8000a58e:	0000                	unimp
    8000a590:	77e8                	ld	a0,232(a5)
    8000a592:	8000                	.2byte	0x8000
    8000a594:	0000                	unimp
    8000a596:	0000                	unimp
    8000a598:	7f48                	ld	a0,184(a4)
    8000a59a:	8000                	.2byte	0x8000
    8000a59c:	0000                	unimp
    8000a59e:	0000                	unimp
    8000a5a0:	7618                	ld	a4,40(a2)
    8000a5a2:	8000                	.2byte	0x8000
    8000a5a4:	0000                	unimp
    8000a5a6:	0000                	unimp
    8000a5a8:	40e8                	lw	a0,68(s1)
    8000a5aa:	8000                	.2byte	0x8000
    8000a5ac:	0000                	unimp
    8000a5ae:	0000                	unimp
    8000a5b0:	4178                	lw	a4,68(a0)
    8000a5b2:	8000                	.2byte	0x8000
    8000a5b4:	0000                	unimp
    8000a5b6:	0000                	unimp
    8000a5b8:	4228                	lw	a0,64(a2)
    8000a5ba:	8000                	.2byte	0x8000
    8000a5bc:	0000                	unimp
    8000a5be:	0000                	unimp
    8000a5c0:	434c                	lw	a1,4(a4)
    8000a5c2:	8000                	.2byte	0x8000
    8000a5c4:	0000                	unimp
    8000a5c6:	0000                	unimp
    8000a5c8:	7c20                	ld	s0,120(s0)
    8000a5ca:	8000                	.2byte	0x8000
    8000a5cc:	0000                	unimp
    8000a5ce:	0000                	unimp
    8000a5d0:	7708                	ld	a0,40(a4)
    8000a5d2:	8000                	.2byte	0x8000
    8000a5d4:	0000                	unimp
    8000a5d6:	0000                	unimp
    8000a5d8:	7ea8                	ld	a0,120(a3)
    8000a5da:	8000                	.2byte	0x8000
    8000a5dc:	0000                	unimp
    8000a5de:	0000                	unimp
    8000a5e0:	79e8                	ld	a0,240(a1)
    8000a5e2:	8000                	.2byte	0x8000
    8000a5e4:	0000                	unimp
    8000a5e6:	0000                	unimp
    8000a5e8:	7848                	ld	a0,176(s0)
    8000a5ea:	8000                	.2byte	0x8000
    8000a5ec:	0000                	unimp
    8000a5ee:	0000                	unimp
    8000a5f0:	7e28                	ld	a0,120(a2)
    8000a5f2:	8000                	.2byte	0x8000
    8000a5f4:	0000                	unimp
    8000a5f6:	0000                	unimp
    8000a5f8:	777c                	ld	a5,232(a4)
    8000a5fa:	8000                	.2byte	0x8000
    8000a5fc:	0000                	unimp
    8000a5fe:	0000                	unimp
    8000a600:	6362                	ld	t1,24(sp)
    8000a602:	6361                	lui	t1,0x18
    8000a604:	6568                	ld	a0,200(a0)
    8000a606:	0000                	unimp
    8000a608:	7562                	ld	a0,56(sp)
    8000a60a:	6666                	ld	a2,88(sp)
    8000a60c:	7265                	lui	tp,0xffff9
    8000a60e:	0000                	unimp
    8000a610:	6762                	ld	a4,24(sp)
    8000a612:	7465                	lui	s0,0xffff9
    8000a614:	203a                	fld	ft0,392(sp)
    8000a616:	6f6e                	ld	t5,216(sp)
    8000a618:	6220                	ld	s0,64(a2)
    8000a61a:	6675                	lui	a2,0x1d
    8000a61c:	6566                	ld	a0,88(sp)
    8000a61e:	7372                	ld	t1,312(sp)
	...
    8000a628:	7762                	ld	a4,56(sp)
    8000a62a:	6972                	ld	s2,280(sp)
    8000a62c:	6574                	ld	a3,200(a0)
    8000a62e:	0000                	unimp
    8000a630:	7262                	ld	tp,56(sp)
    8000a632:	6c65                	lui	s8,0x19
    8000a634:	00006573          	csrrsi	a0,ustatus,0
    8000a638:	7266                	ld	tp,120(sp)
    8000a63a:	6565                	lui	a0,0x19
    8000a63c:	6e69                	lui	t3,0x1a
    8000a63e:	72662067          	.4byte	0x72662067
    8000a642:	6565                	lui	a0,0x19
    8000a644:	6220                	ld	s0,64(a2)
    8000a646:	6f6c                	ld	a1,216(a4)
    8000a648:	00006b63          	bltu	zero,zero,0x8000a65e
    8000a64c:	0000                	unimp
    8000a64e:	0000                	unimp
    8000a650:	6162                	ld	sp,24(sp)
    8000a652:	6c6c                	ld	a1,216(s0)
    8000a654:	203a636f          	jal	t1,0x800b1056
    8000a658:	2074756f          	jal	a0,0x8005205e
    8000a65c:	6220666f          	jal	a2,0x80010c7e
    8000a660:	6f6c                	ld	a1,216(a4)
    8000a662:	0a736b63          	bltu	t1,t2,0x8000a718
    8000a666:	0000                	unimp
    8000a668:	6d62                	ld	s10,24(sp)
    8000a66a:	7061                	c.lui	zero,0xffff8
    8000a66c:	203a                	fld	ft0,392(sp)
    8000a66e:	2074756f          	jal	a0,0x80052074
    8000a672:	7220666f          	jal	a2,0x80010d94
    8000a676:	6e61                	lui	t3,0x18
    8000a678:	00006567          	.4byte	0x6567
    8000a67c:	0000                	unimp
    8000a67e:	0000                	unimp
    8000a680:	6769                	lui	a4,0x1a
    8000a682:	7465                	lui	s0,0xffff9
    8000a684:	203a                	fld	ft0,392(sp)
    8000a686:	6f6e                	ld	t5,216(sp)
    8000a688:	6920                	ld	s0,80(a0)
    8000a68a:	6f6e                	ld	t5,216(sp)
    8000a68c:	6564                	ld	s1,200(a0)
    8000a68e:	74690073          	.4byte	0x74690073
    8000a692:	6261                	lui	tp,0x18
    8000a694:	656c                	ld	a1,200(a0)
    8000a696:	0000                	unimp
    8000a698:	6e69                	lui	t3,0x1a
    8000a69a:	0065646f          	jal	s0,0x800606a0
    8000a69e:	0000                	unimp
    8000a6a0:	6169                	addi	sp,sp,208
    8000a6a2:	6c6c                	ld	a1,216(s0)
    8000a6a4:	203a636f          	jal	t1,0x800b10a6
    8000a6a8:	6f6e                	ld	t5,216(sp)
    8000a6aa:	6920                	ld	s0,80(a0)
    8000a6ac:	6f6e                	ld	t5,216(sp)
    8000a6ae:	6564                	ld	s1,200(a0)
    8000a6b0:	00000a73          	.4byte	0xa73
    8000a6b4:	0000                	unimp
    8000a6b6:	0000                	unimp
    8000a6b8:	6c69                	lui	s8,0x1a
    8000a6ba:	006b636f          	jal	t1,0x800c06c0
    8000a6be:	0000                	unimp
    8000a6c0:	6c69                	lui	s8,0x1a
    8000a6c2:	3a6b636f          	jal	t1,0x800c0a68
    8000a6c6:	6e20                	ld	s0,88(a2)
    8000a6c8:	7974206f          	j	0x8004d65e
    8000a6cc:	6570                	ld	a2,200(a0)
    8000a6ce:	0000                	unimp
    8000a6d0:	7569                	lui	a0,0xffffa
    8000a6d2:	6c6e                	ld	s8,216(sp)
    8000a6d4:	006b636f          	jal	t1,0x800c06da
    8000a6d8:	7269                	lui	tp,0xffffa
    8000a6da:	6365                	lui	t1,0x19
    8000a6dc:	616c                	ld	a1,192(a0)
    8000a6de:	6d69                	lui	s10,0x1a
    8000a6e0:	203a                	fld	ft0,392(sp)
    8000a6e2:	6870726f          	jal	tp,0x80012568
    8000a6e6:	6e61                	lui	t3,0x18
    8000a6e8:	6465                	lui	s0,0x19
    8000a6ea:	6920                	ld	s0,80(a0)
    8000a6ec:	6f6e                	ld	t5,216(sp)
    8000a6ee:	6564                	ld	s1,200(a0)
    8000a6f0:	2520                	fld	fs0,72(a0)
    8000a6f2:	0a64                	addi	s1,sp,284
    8000a6f4:	0000                	unimp
    8000a6f6:	0000                	unimp
    8000a6f8:	6e69                	lui	t3,0x1a
    8000a6fa:	6176                	ld	sp,344(sp)
    8000a6fc:	696c                	ld	a1,208(a0)
    8000a6fe:	2064                	fld	fs1,192(s0)
    8000a700:	6966                	ld	s2,88(sp)
    8000a702:	656c                	ld	a1,200(a0)
    8000a704:	7320                	ld	s0,96(a4)
    8000a706:	7379                	lui	t1,0xffffe
    8000a708:	6574                	ld	a3,200(a0)
    8000a70a:	006d                	c.nop	27
    8000a70c:	0000                	unimp
    8000a70e:	0000                	unimp
    8000a710:	6964                	ld	s1,208(a0)
    8000a712:	6c72                	ld	s8,280(sp)
    8000a714:	756b6f6f          	jal	t5,0x800c0e6a
    8000a718:	2070                	fld	fa2,192(s0)
    8000a71a:	6f6e                	ld	t5,216(sp)
    8000a71c:	2074                	fld	fa3,192(s0)
    8000a71e:	4944                	lw	s1,20(a0)
    8000a720:	0052                	c.slli	zero,0x14
    8000a722:	0000                	unimp
    8000a724:	0000                	unimp
    8000a726:	0000                	unimp
    8000a728:	6964                	ld	s1,208(a0)
    8000a72a:	6c72                	ld	s8,280(sp)
    8000a72c:	756b6f6f          	jal	t5,0x800c0e82
    8000a730:	2070                	fld	fa2,192(s0)
    8000a732:	6572                	ld	a0,280(sp)
    8000a734:	6461                	lui	s0,0x18
    8000a736:	0000                	unimp
    8000a738:	6964                	ld	s1,208(a0)
    8000a73a:	6c72                	ld	s8,280(sp)
    8000a73c:	6e69                	lui	t3,0x1a
    8000a73e:	6572206b          	.4byte	0x6572206b
    8000a742:	6461                	lui	s0,0x18
    8000a744:	0000                	unimp
    8000a746:	0000                	unimp
    8000a748:	6572                	ld	a0,280(sp)
    8000a74a:	65766f63          	bltu	a2,s7,0x8000ada8
    8000a74e:	6972                	ld	s2,280(sp)
    8000a750:	676e                	ld	a4,216(sp)
    8000a752:	7420                	ld	s0,104(s0)
    8000a754:	6961                	lui	s2,0x18
    8000a756:	206c                	fld	fa1,192(s0)
    8000a758:	6425                	lui	s0,0x9
    8000a75a:	6420                	ld	s0,72(s0)
    8000a75c:	25207473          	csrrci	s0,0x252,0
    8000a760:	0a64                	addi	s1,sp,284
    8000a762:	0000                	unimp
    8000a764:	0000                	unimp
    8000a766:	0000                	unimp
    8000a768:	6f6c                	ld	a1,216(a4)
    8000a76a:	00000067          	jr	zero # 0x0
    8000a76e:	0000                	unimp
    8000a770:	6f6c                	ld	a1,216(a4)
    8000a772:	6f632e67          	.4byte	0x6f632e67
    8000a776:	6d6d                	lui	s10,0x1b
    8000a778:	7469                	lui	s0,0xffffa
    8000a77a:	6974                	ld	a3,208(a0)
    8000a77c:	676e                	ld	a4,216(sp)
    8000a77e:	0000                	unimp
    8000a780:	6f74                	ld	a3,216(a4)
    8000a782:	6962206f          	j	0x8002ce18
    8000a786:	20612067          	.4byte	0x20612067
    8000a78a:	7274                	ld	a3,224(a2)
    8000a78c:	6e61                	lui	t3,0x18
    8000a78e:	74636173          	csrrsi	sp,0x746,6
    8000a792:	6f69                	lui	t5,0x1a
    8000a794:	006e                	c.slli	zero,0x1b
    8000a796:	0000                	unimp
    8000a798:	6f6c                	ld	a1,216(a4)
    8000a79a:	72775f67          	.4byte	0x72775f67
    8000a79e:	7469                	lui	s0,0xffffa
    8000a7a0:	2065                	.2byte	0x2065
    8000a7a2:	7374756f          	jal	a0,0x800526d8
    8000a7a6:	6469                	lui	s0,0x1a
    8000a7a8:	2065                	.2byte	0x2065
    8000a7aa:	7420666f          	jal	a2,0x80010eec
    8000a7ae:	6172                	ld	sp,280(sp)
    8000a7b0:	736e                	ld	t1,248(sp)
    8000a7b2:	0000                	unimp
    8000a7b4:	0000                	unimp
    8000a7b6:	0000                	unimp
    8000a7b8:	65656c73          	csrrsi	s8,0x656,10
    8000a7bc:	2070                	fld	fa2,192(s0)
    8000a7be:	6f6c                	ld	a1,216(a4)
    8000a7c0:	00006b63          	bltu	zero,zero,0x8000a7d6
    8000a7c4:	0000                	unimp
    8000a7c6:	0000                	unimp
    8000a7c8:	7466                	ld	s0,120(sp)
    8000a7ca:	6261                	lui	tp,0x18
    8000a7cc:	656c                	ld	a1,200(a0)
    8000a7ce:	0000                	unimp
    8000a7d0:	6966                	ld	s2,88(sp)
    8000a7d2:	656c                	ld	a1,200(a0)
    8000a7d4:	7564                	ld	s1,232(a0)
    8000a7d6:	0070                	addi	a2,sp,12
    8000a7d8:	6966                	ld	s2,88(sp)
    8000a7da:	656c                	ld	a1,200(a0)
    8000a7dc:	736f6c63          	bltu	t5,s6,0x8000af14
    8000a7e0:	0065                	c.nop	25
    8000a7e2:	0000                	unimp
    8000a7e4:	0000                	unimp
    8000a7e6:	0000                	unimp
    8000a7e8:	6966                	ld	s2,88(sp)
    8000a7ea:	656c                	ld	a1,200(a0)
    8000a7ec:	6572                	ld	a0,280(sp)
    8000a7ee:	6461                	lui	s0,0x18
	...
    8000a7f8:	6966                	ld	s2,88(sp)
    8000a7fa:	656c                	ld	a1,200(a0)
    8000a7fc:	74697277          	.4byte	0x74697277
    8000a800:	0065                	c.nop	25
    8000a802:	0000                	unimp
    8000a804:	0000                	unimp
    8000a806:	0000                	unimp
    8000a808:	6970                	ld	a2,208(a0)
    8000a80a:	6570                	ld	a2,200(a0)
    8000a80c:	0000                	unimp
    8000a80e:	0000                	unimp
    8000a810:	6f6c                	ld	a1,216(a4)
    8000a812:	6461                	lui	s0,0x18
    8000a814:	3a676573          	csrrsi	a0,0x3a6,14
    8000a818:	6120                	ld	s0,64(a0)
    8000a81a:	6464                	ld	s1,200(s0)
    8000a81c:	6572                	ld	a0,280(sp)
    8000a81e:	73207373          	csrrci	t1,0x732,0
    8000a822:	6f68                	ld	a0,216(a4)
    8000a824:	6c75                	lui	s8,0x1d
    8000a826:	2064                	fld	fs1,192(s0)
    8000a828:	7865                	lui	a6,0xffff9
    8000a82a:	7369                	lui	t1,0xffffa
    8000a82c:	0074                	addi	a3,sp,12
    8000a82e:	0000                	unimp
    8000a830:	002e                	c.slli	zero,0xb
    8000a832:	0000                	unimp
    8000a834:	0000                	unimp
    8000a836:	0000                	unimp
    8000a838:	2e2e                	fld	ft8,200(sp)
    8000a83a:	0000                	unimp
    8000a83c:	0000                	unimp
    8000a83e:	0000                	unimp
    8000a840:	6e75                	lui	t3,0x1d
    8000a842:	696c                	ld	a1,208(a0)
    8000a844:	6b6e                	ld	s6,216(sp)
    8000a846:	203a                	fld	ft0,392(sp)
    8000a848:	6c6e                	ld	s8,216(sp)
    8000a84a:	6e69                	lui	t3,0x1a
    8000a84c:	203c206b          	.4byte	0x203c206b
    8000a850:	0031                	c.nop	12
    8000a852:	0000                	unimp
    8000a854:	0000                	unimp
    8000a856:	0000                	unimp
    8000a858:	7369                	lui	t1,0xffffa
    8000a85a:	6964                	ld	s1,208(a0)
    8000a85c:	6572                	ld	a0,280(sp)
    8000a85e:	706d                	c.lui	zero,0xffffb
    8000a860:	7974                	ld	a3,240(a0)
    8000a862:	203a                	fld	ft0,392(sp)
    8000a864:	6572                	ld	a0,280(sp)
    8000a866:	6461                	lui	s0,0x18
    8000a868:	0069                	c.nop	26
    8000a86a:	0000                	unimp
    8000a86c:	0000                	unimp
    8000a86e:	0000                	unimp
    8000a870:	6e75                	lui	t3,0x1d
    8000a872:	696c                	ld	a1,208(a0)
    8000a874:	6b6e                	ld	s6,216(sp)
    8000a876:	203a                	fld	ft0,392(sp)
    8000a878:	74697277          	.4byte	0x74697277
    8000a87c:	6965                	lui	s2,0x19
    8000a87e:	0000                	unimp
    8000a880:	7266                	ld	tp,120(sp)
    8000a882:	6565                	lui	a0,0x19
    8000a884:	645f 7365 2063      	.byte	0x5f, 0x64, 0x65, 0x73, 0x63, 0x20
    8000a88a:	0031                	c.nop	12
    8000a88c:	0000                	unimp
    8000a88e:	0000                	unimp
    8000a890:	7266                	ld	tp,120(sp)
    8000a892:	6565                	lui	a0,0x19
    8000a894:	645f 7365 2063      	.byte	0x5f, 0x64, 0x65, 0x73, 0x63, 0x20
    8000a89a:	0032                	c.slli	zero,0xc
    8000a89c:	0000                	unimp
    8000a89e:	0000                	unimp
    8000a8a0:	6976                	ld	s2,344(sp)
    8000a8a2:	7472                	ld	s0,312(sp)
    8000a8a4:	6f69                	lui	t5,0x1a
    8000a8a6:	645f 7369 006b      	.byte	0x5f, 0x64, 0x69, 0x73, 0x6b, 0x00
    8000a8ac:	0000                	unimp
    8000a8ae:	0000                	unimp
    8000a8b0:	6c756f63          	bltu	a0,t2,0x8000af8e
    8000a8b4:	2064                	fld	fs1,192(s0)
    8000a8b6:	6f6e                	ld	t5,216(sp)
    8000a8b8:	2074                	fld	fa3,192(s0)
    8000a8ba:	6966                	ld	s2,88(sp)
    8000a8bc:	646e                	ld	s0,216(sp)
    8000a8be:	7620                	ld	s0,104(a2)
    8000a8c0:	7269                	lui	tp,0xffffa
    8000a8c2:	6974                	ld	a3,208(a0)
    8000a8c4:	6964206f          	j	0x8004cf5a
    8000a8c8:	00006b73          	csrrsi	s6,ustatus,0
    8000a8cc:	0000                	unimp
    8000a8ce:	0000                	unimp
    8000a8d0:	6976                	ld	s2,344(sp)
    8000a8d2:	7472                	ld	s0,312(sp)
    8000a8d4:	6f69                	lui	t5,0x1a
    8000a8d6:	6420                	ld	s0,72(s0)
    8000a8d8:	7369                	lui	t1,0xffffa
    8000a8da:	4546206b          	.4byte	0x4546206b
    8000a8de:	5441                	li	s0,-16
    8000a8e0:	5255                	li	tp,-11
    8000a8e2:	5345                	li	t1,-15
    8000a8e4:	4f5f 204b 6e75      	.byte	0x5f, 0x4f, 0x4b, 0x20, 0x75, 0x6e
    8000a8ea:	00746573          	csrrsi	a0,0x7,8
    8000a8ee:	0000                	unimp
    8000a8f0:	6976                	ld	s2,344(sp)
    8000a8f2:	7472                	ld	s0,312(sp)
    8000a8f4:	6f69                	lui	t5,0x1a
    8000a8f6:	6420                	ld	s0,72(s0)
    8000a8f8:	7369                	lui	t1,0xffffa
    8000a8fa:	6873206b          	.4byte	0x6873206b
    8000a8fe:	646c756f          	jal	a0,0x800d1f44
    8000a902:	6e20                	ld	s0,88(a2)
    8000a904:	6220746f          	jal	s0,0x80011f26
    8000a908:	2065                	.2byte	0x2065
    8000a90a:	6572                	ld	a0,280(sp)
    8000a90c:	6461                	lui	s0,0x18
    8000a90e:	0079                	c.nop	30
    8000a910:	6976                	ld	s2,344(sp)
    8000a912:	7472                	ld	s0,312(sp)
    8000a914:	6f69                	lui	t5,0x1a
    8000a916:	6420                	ld	s0,72(s0)
    8000a918:	7369                	lui	t1,0xffffa
    8000a91a:	6168206b          	.4byte	0x6168206b
    8000a91e:	6f6e2073          	csrs	0x6f6,t3
    8000a922:	7120                	ld	s0,96(a0)
    8000a924:	6575                	lui	a0,0x1d
    8000a926:	6575                	lui	a0,0x1d
    8000a928:	3020                	fld	fs0,96(s0)
    8000a92a:	0000                	unimp
    8000a92c:	0000                	unimp
    8000a92e:	0000                	unimp
    8000a930:	6976                	ld	s2,344(sp)
    8000a932:	7472                	ld	s0,312(sp)
    8000a934:	6f69                	lui	t5,0x1a
    8000a936:	6420                	ld	s0,72(s0)
    8000a938:	7369                	lui	t1,0xffffa
    8000a93a:	616d206b          	.4byte	0x616d206b
    8000a93e:	2078                	fld	fa4,192(s0)
    8000a940:	7571                	lui	a0,0xffffc
    8000a942:	7565                	lui	a0,0xffff9
    8000a944:	2065                	.2byte	0x2065
    8000a946:	6f74                	ld	a3,216(a4)
    8000a948:	6873206f          	j	0x8003d7ce
    8000a94c:	0074726f          	jal	tp,0x80052152
    8000a950:	6976                	ld	s2,344(sp)
    8000a952:	7472                	ld	s0,312(sp)
    8000a954:	6f69                	lui	t5,0x1a
    8000a956:	6420                	ld	s0,72(s0)
    8000a958:	7369                	lui	t1,0xffffa
    8000a95a:	616b206b          	.4byte	0x616b206b
    8000a95e:	6c6c                	ld	a1,216(s0)
    8000a960:	0000636f          	jal	t1,0x80010960
    8000a964:	0000                	unimp
    8000a966:	0000                	unimp
    8000a968:	6976                	ld	s2,344(sp)
    8000a96a:	7472                	ld	s0,312(sp)
    8000a96c:	6f69                	lui	t5,0x1a
    8000a96e:	645f 7369 5f6b      	.byte	0x5f, 0x64, 0x69, 0x73, 0x6b, 0x5f
    8000a974:	6e69                	lui	t3,0x1a
    8000a976:	7274                	ld	a3,224(a2)
    8000a978:	7320                	ld	s0,96(a4)
    8000a97a:	6174                	ld	a3,192(a0)
    8000a97c:	7574                	ld	a3,232(a0)
    8000a97e:	00010073          	.4byte	0x10073
    8000a982:	0000                	unimp
    8000a984:	0001                	nop
	...
